MODULE Linux x86_64 70E9FE216946A0ECB95EFFF4C64FAA420 test
INFO CODE_ID 21FEE9704669ECA0B95EFFF4C64FAA42802154B9
FUNC 25f0 20 0 google_breakpad::LineReader::PopLine(unsigned int)
FUNC 2610 20 0 google_breakpad::TypedMDRVA<MDRawDirectory>::CopyIndex(unsigned int, MDRawDirectory*)
FUNC 2630 1d 0 google_breakpad::TypedMDRVA<MDRawDirectory>::CopyIndex(unsigned int, MDRawDirectory*)
FUNC 264e 20 0 google_breakpad::TypedMDRVA<unsigned int>::AllocateObjectAndArray(unsigned long, unsigned long)
FUNC 266e 20 0 google_breakpad::TypedMDRVA<unsigned int>::CopyIndexAfterObject(unsigned int, void const*, unsigned long)
FUNC 268e 1cb 0 MinidumpWriter::WriteFile
FUNC 285a 68 0 MinidumpWriter::WriteProcFile
FUNC 28c2 20 0 google_breakpad::TypedMDRVA<MDString>::CopyIndexAfterObject(unsigned int, void const*, unsigned long)
FUNC 28e2 20 0 google_breakpad::TypedMDRVA<MDString>::AllocateObjectAndArray(unsigned long, unsigned long)
FUNC 29ed 4a 0 dumpCallback(google_breakpad::MinidumpDescriptor const&, void*, bool)
FUNC 2a37 16 0 genFloatingException()
FUNC 2a4d 9 0 genAbortException()
FUNC 2a56 2fc 0 UploadMinidump(std::string&)
FUNC 2d52 107 0 read_directory(std::string const&, std::vector<std::string, std::allocator<std::string> >&)
FUNC 2e59 170 0 CheckForMiniDumpFiles(std::vector<std::string, std::allocator<std::string> >&)
FUNC 2fc9 1b9 0 main
FUNC 3182 3d 0 __static_initialization_and_destruction_0
FUNC 31bf 15 0 _GLOBAL__sub_I__Z12dumpCallbackRKN15google_breakpad18MinidumpDescriptorEPvb
FUNC 31d4 12 0 operator new(unsigned long, void*)
FUNC 31e6 e 0 operator delete(void*, void*)
FUNC 31f4 39 0 google_breakpad::MicrodumpExtraInfo::MicrodumpExtraInfo()
FUNC 322e df 0 google_breakpad::MinidumpDescriptor::MinidumpDescriptor(std::string const&)
FUNC 330e 12 0 google_breakpad::MinidumpDescriptor::path() const
FUNC 3320 1a 0 std::map<std::string, std::string, std::less<std::string>, std::allocator<std::pair<std::string const, std::string> > >::~map()
FUNC 333a 2e 0 google_breakpad::MinidumpDescriptor::~MinidumpDescriptor()
FUNC 3368 1a 0 std::map<std::string, std::string, std::less<std::string>, std::allocator<std::pair<std::string const, std::string> > >::map()
FUNC 3382 1a 0 std::_Rb_tree<std::string, std::pair<std::string const, std::string>, std::_Select1st<std::pair<std::string const, std::string> >, std::less<std::string>, std::allocator<std::pair<std::string const, std::string> > >::_Rb_tree_impl<std::less<std::string>, true>::~_Rb_tree_impl()
FUNC 339c 38 0 std::_Rb_tree<std::string, std::pair<std::string const, std::string>, std::_Select1st<std::pair<std::string const, std::string> >, std::less<std::string>, std::allocator<std::pair<std::string const, std::string> > >::~_Rb_tree()
FUNC 33d4 e 0 std::remove_reference<std::string&>::type&& std::move<std::string&>(std::string&)
FUNC 33e2 130 0 std::map<std::string, std::string, std::less<std::string>, std::allocator<std::pair<std::string const, std::string> > >::operator[](std::string&&)
FUNC 3512 e 0 std::string const& std::forward<std::string const&>(std::remove_reference<std::string const&>::type&)
FUNC 3520 6b 0 std::vector<std::string, std::allocator<std::string> >::push_back(std::string const&)
FUNC 358c 25 0 std::vector<std::string, std::allocator<std::string> >::begin()
FUNC 35b2 29 0 std::vector<std::string, std::allocator<std::string> >::end()
FUNC 35db 3c 0 bool __gnu_cxx::operator!=<std::string*, std::vector<std::string, std::allocator<std::string> > >(__gnu_cxx::__normal_iterator<std::string*, std::vector<std::string, std::allocator<std::string> > > const&, __gnu_cxx::__normal_iterator<std::string*, std::vector<std::string, std::allocator<std::string> > > const&)
FUNC 3618 20 0 __gnu_cxx::__normal_iterator<std::string*, std::vector<std::string, std::allocator<std::string> > >::operator++()
FUNC 3638 11 0 __gnu_cxx::__normal_iterator<std::string*, std::vector<std::string, std::allocator<std::string> > >::operator*() const
FUNC 364a 1a 0 std::vector<std::string, std::allocator<std::string> >::vector()
FUNC 3664 43 0 std::vector<std::string, std::allocator<std::string> >::~vector()
FUNC 36a8 1a 0 std::_Rb_tree<std::string, std::pair<std::string const, std::string>, std::_Select1st<std::pair<std::string const, std::string> >, std::less<std::string>, std::allocator<std::pair<std::string const, std::string> > >::_Rb_tree()
FUNC 36c2 1a 0 std::allocator<std::_Rb_tree_node<std::pair<std::string const, std::string> > >::~allocator()
FUNC 36dc 64 0 std::_Rb_tree<std::string, std::pair<std::string const, std::string>, std::_Select1st<std::pair<std::string const, std::string> >, std::less<std::string>, std::allocator<std::pair<std::string const, std::string> > >::_M_erase(std::_Rb_tree_node<std::pair<std::string const, std::string> >*)
FUNC 3740 12 0 std::_Rb_tree<std::string, std::pair<std::string const, std::string>, std::_Select1st<std::pair<std::string const, std::string> >, std::less<std::string>, std::allocator<std::pair<std::string const, std::string> > >::_M_begin()
FUNC 3752 25 0 std::map<std::string, std::string, std::less<std::string>, std::allocator<std::pair<std::string const, std::string> > >::lower_bound(std::string const&)
FUNC 3778 22 0 std::map<std::string, std::string, std::less<std::string>, std::allocator<std::pair<std::string const, std::string> > >::key_comp() const
FUNC 379a 15 0 std::_Rb_tree_iterator<std::pair<std::string const, std::string> >::operator*() const
FUNC 37b0 29 0 std::less<std::string>::operator()(std::string const&, std::string const&) const
FUNC 37da 1a 0 std::map<std::string, std::string, std::less<std::string>, std::allocator<std::pair<std::string const, std::string> > >::end()
FUNC 37f4 22 0 std::_Rb_tree_iterator<std::pair<std::string const, std::string> >::operator==(std::_Rb_tree_iterator<std::pair<std::string const, std::string> > const&) const
FUNC 3816 e 0 std::string&& std::forward<std::string>(std::remove_reference<std::string>::type&)
FUNC 3824 a 0 std::_Tuple_impl<1ul>::_Tuple_impl()
FUNC 382e 25 0 std::_Head_base<0ul, std::string&&, false>::_Head_base<std::string>(std::string&&)
FUNC 3854 3c 0 std::_Tuple_impl<0ul, std::string&&>::_Tuple_impl<std::string<>, void>(std::string<>&&, (void&&)...)
FUNC 3890 30 0 std::tuple<std::string&&>::tuple<std::string, void>(std::string&&)
FUNC 38c0 e 0 std::_Tuple_impl<0ul, std::string&&>::_M_tail(std::_Tuple_impl<0ul, std::string&&>&)
FUNC 38ce e 0 std::remove_reference<std::_Tuple_impl<1ul>&>::type&& std::move<std::_Tuple_impl<1ul>&>(std::_Tuple_impl<1ul>&)
FUNC 38dc 11 0 std::_Head_base<0ul, std::string&&, false>::_M_head(std::_Head_base<0ul, std::string&&, false>&)
FUNC 38ed 1a 0 std::_Tuple_impl<0ul, std::string&&>::_M_head(std::_Tuple_impl<0ul, std::string&&>&)
FUNC 3907 e 0 std::string&& std::forward<std::string&&>(std::remove_reference<std::string&&>::type&)
FUNC 3916 4c 0 std::_Tuple_impl<0ul, std::string&&>::_Tuple_impl(std::_Tuple_impl<0ul, std::string&&>&&)
FUNC 3962 25 0 std::tuple<std::string&&>::tuple(std::tuple<std::string&&>&&)
FUNC 3987 34 0 std::tuple<std::string&&> std::forward_as_tuple<std::string>(std::string&&)
FUNC 39bc 1c 0 std::_Rb_tree_const_iterator<std::pair<std::string const, std::string> >::_Rb_tree_const_iterator(std::_Rb_tree_iterator<std::pair<std::string const, std::string> > const&)
FUNC 39d8 e 0 std::piecewise_construct_t const& std::forward<std::piecewise_construct_t const&>(std::remove_reference<std::piecewise_construct_t const&>::type&)
FUNC 39e6 e 0 std::tuple<std::string&&>&& std::forward<std::tuple<std::string&&> >(std::remove_reference<std::tuple<std::string&&> >::type&)
FUNC 39f4 e 0 std::tuple<>&& std::forward<std::tuple<> >(std::remove_reference<std::tuple<> >::type&)
FUNC 3a02 117 0 std::_Rb_tree_iterator<std::pair<std::string const, std::string> > std::_Rb_tree<std::string, std::pair<std::string const, std::string>, std::_Select1st<std::pair<std::string const, std::string> >, std::less<std::string>, std::allocator<std::pair<std::string const, std::string> > >::_M_emplace_hint_unique<std::piecewise_construct_t const&, std::tuple<std::string&&>, std::tuple<> >(std::_Rb_tree_const_iterator<std::pair<std::string const, std::string> >, std::piecewise_construct_t const&, std::tuple<std::string&&>&&, std::tuple<>&&)
FUNC 3b19 38 0 std::allocator_traits<std::allocator<std::basic_string<char, std::char_traits<char>, std::allocator<char> > > >::construct<std::basic_string<char>, const std::basic_string<char, std::char_traits<char>, std::allocator<char> >&>
FUNC 3b52 1ea 0 void std::vector<std::string, std::allocator<std::string> >::_M_emplace_back_aux<std::string const&>(std::string const&)
FUNC 3d3c 1c 0 __gnu_cxx::__normal_iterator<std::string*, std::vector<std::string, std::allocator<std::string> > >::__normal_iterator(std::string* const&)
FUNC 3d58 e 0 __gnu_cxx::__normal_iterator<std::string*, std::vector<std::string, std::allocator<std::string> > >::base() const
FUNC 3d66 1a 0 std::_Vector_base<std::string, std::allocator<std::string> >::_Vector_impl::~_Vector_impl()
FUNC 3d80 1a 0 std::_Vector_base<std::string, std::allocator<std::string> >::_Vector_base()
FUNC 3d9a 4f 0 std::_Vector_base<std::string, std::allocator<std::string> >::~_Vector_base()
FUNC 3dea e 0 std::_Vector_base<std::string, std::allocator<std::string> >::_M_get_Tp_allocator()
FUNC 3df8 29 0 void std::_Destroy<std::string*, std::string>(std::string*, std::string*, std::allocator<std::string>&)
FUNC 3e22 61 0 std::_Rb_tree<std::string, std::pair<std::string const, std::string>, std::_Select1st<std::pair<std::string const, std::string> >, std::less<std::string>, std::allocator<std::pair<std::string const, std::string> > >::_Rb_tree_impl<std::less<std::string>, true>::_Rb_tree_impl()
FUNC 3e84 a 0 __gnu_cxx::new_allocator<std::_Rb_tree_node<std::pair<std::string const, std::string> > >::~new_allocator()
FUNC 3e8e 12 0 std::_Rb_tree<std::string, std::pair<std::string const, std::string>, std::_Select1st<std::pair<std::string const, std::string> >, std::less<std::string>, std::allocator<std::pair<std::string const, std::string> > >::_S_right(std::_Rb_tree_node_base*)
FUNC 3ea0 12 0 std::_Rb_tree<std::string, std::pair<std::string const, std::string>, std::_Select1st<std::pair<std::string const, std::string> >, std::less<std::string>, std::allocator<std::pair<std::string const, std::string> > >::_S_left(std::_Rb_tree_node_base*)
FUNC 3eb2 40 0 std::_Rb_tree<std::string, std::pair<std::string const, std::string>, std::_Select1st<std::pair<std::string const, std::string> >, std::less<std::string>, std::allocator<std::pair<std::string const, std::string> > >::_M_destroy_node(std::_Rb_tree_node<std::pair<std::string const, std::string> >*)
FUNC 3ef2 4c 0 std::_Rb_tree<std::string, std::pair<std::string const, std::string>, std::_Select1st<std::pair<std::string const, std::string> >, std::less<std::string>, std::allocator<std::pair<std::string const, std::string> > >::lower_bound(std::string const&)
FUNC 3f3e a 0 std::_Rb_tree<std::string, std::pair<std::string const, std::string>, std::_Select1st<std::pair<std::string const, std::string> >, std::less<std::string>, std::allocator<std::pair<std::string const, std::string> > >::key_comp() const
FUNC 3f48 28 0 bool std::operator< <char, std::char_traits<char>, std::allocator<char> >(std::basic_string<char, std::char_traits<char>, std::allocator<char> > const&, std::basic_string<char, std::char_traits<char>, std::allocator<char> > const&)
FUNC 3f70 29 0 std::_Rb_tree<std::string, std::pair<std::string const, std::string>, std::_Select1st<std::pair<std::string const, std::string> >, std::less<std::string>, std::allocator<std::pair<std::string const, std::string> > >::end()
FUNC 3f9a bf 0 std::_Rb_tree_node<std::pair<std::string const, std::string> >* std::_Rb_tree<std::string, std::pair<std::string const, std::string>, std::_Select1st<std::pair<std::string const, std::string> >, std::less<std::string>, std::allocator<std::pair<std::string const, std::string> > >::_M_create_node<std::piecewise_construct_t const&, std::tuple<std::string&&>, std::tuple<> >(std::piecewise_construct_t const&, std::tuple<std::string&&>&&, std::tuple<>&&)
FUNC 4059 e 0 std::_Rb_tree_node_base*& std::forward<std::_Rb_tree_node_base*&>(std::remove_reference<std::_Rb_tree_node_base*&>::type&)
FUNC 4068 3b 0 std::pair<std::_Rb_tree_node_base*, std::_Rb_tree_node_base*>::pair<std::_Rb_tree_node_base*&, void>(std::_Rb_tree_node_base* const&, std::_Rb_tree_node_base*&)
FUNC 40a4 43 0 std::pair<std::_Rb_tree_node_base*, std::_Rb_tree_node_base*>::pair<std::_Rb_tree_node_base*&, std::_Rb_tree_node_base*&, void>(std::_Rb_tree_node_base*&, std::_Rb_tree_node_base*&)
FUNC 40e8 3b 0 std::pair<std::_Rb_tree_node_base*, std::_Rb_tree_node_base*>::pair<std::_Rb_tree_node_base*&, void>(std::_Rb_tree_node_base*&, std::_Rb_tree_node_base* const&)
FUNC 4124 379 0 std::_Rb_tree<std::string, std::pair<std::string const, std::string>, std::_Select1st<std::pair<std::string const, std::string> >, std::less<std::string>, std::allocator<std::pair<std::string const, std::string> > >::_M_get_insert_hint_unique_pos(std::_Rb_tree_const_iterator<std::pair<std::string const, std::string> >, std::string const&)
FUNC 449d 2c 0 std::_Rb_tree<std::string, std::pair<std::string const, std::string>, std::_Select1st<std::pair<std::string const, std::string> >, std::less<std::string>, std::allocator<std::pair<std::string const, std::string> > >::_S_key(std::_Rb_tree_node<std::pair<std::string const, std::string> > const*)
FUNC 44ca c2 0 std::_Rb_tree<std::string, std::pair<std::string const, std::string>, std::_Select1st<std::pair<std::string const, std::string> >, std::less<std::string>, std::allocator<std::pair<std::string const, std::string> > >::_M_insert_node(std::_Rb_tree_node_base*, std::_Rb_tree_node_base*, std::_Rb_tree_node<std::pair<std::string const, std::string> >*)
FUNC 458c 19 0 std::_Rb_tree_iterator<std::pair<std::string const, std::string> >::_Rb_tree_iterator(std::_Rb_tree_node<std::pair<std::string const, std::string> >*)
FUNC 45a5 38 0 std::allocator_traits<std::allocator<std::basic_string<char, std::char_traits<char>, std::allocator<char> > > >::_S_construct<std::basic_string<char>, const std::basic_string<char, std::char_traits<char>, std::allocator<char> >&>
FUNC 45de c9 0 std::vector<std::string, std::allocator<std::string> >::_M_check_len(unsigned long, char const*) const
FUNC 46a8 38 0 std::_Vector_base<std::string, std::allocator<std::string> >::_M_allocate(unsigned long)
FUNC 46e0 26 0 std::vector<std::string, std::allocator<std::string> >::size() const
FUNC 4706 4e 0 std::string* std::__uninitialized_move_if_noexcept_a<std::string*, std::string*, std::allocator<std::string> >(std::string*, std::string*, std::string*, std::allocator<std::string>&)
FUNC 4754 25 0 void std::allocator_traits<std::allocator<std::string> >::destroy<std::string>(std::allocator<std::string>&, std::string*)
FUNC 477a 34 0 std::_Vector_base<std::string, std::allocator<std::string> >::_M_deallocate(std::string*, unsigned long)
FUNC 47ae 3d 0 std::_Vector_base<std::string, std::allocator<std::string> >::_Vector_impl::_Vector_impl()
FUNC 47ec 1a 0 std::allocator<std::string>::~allocator()
FUNC 4806 25 0 void std::_Destroy<std::string*>(std::string*, std::string*)
FUNC 482c 1a 0 std::allocator<std::_Rb_tree_node<std::pair<std::string const, std::string> > >::allocator()
FUNC 4846 41 0 std::_Rb_tree<std::string, std::pair<std::string const, std::string>, std::_Select1st<std::pair<std::string const, std::string> >, std::less<std::string>, std::allocator<std::pair<std::string const, std::string> > >::_Rb_tree_impl<std::less<std::string>, true>::_M_initialize()
FUNC 4888 e 0 std::_Rb_tree<std::string, std::pair<std::string const, std::string>, std::_Select1st<std::pair<std::string const, std::string> >, std::less<std::string>, std::allocator<std::pair<std::string const, std::string> > >::_M_get_Node_allocator()
FUNC 4896 2a 0 std::pair<std::string const, std::string>::~pair()
FUNC 48c0 1e 0 std::_Rb_tree_node<std::pair<std::string const, std::string> >::~_Rb_tree_node()
FUNC 48de 1e 0 void __gnu_cxx::new_allocator<std::_Rb_tree_node<std::pair<std::string const, std::string> > >::destroy<std::_Rb_tree_node<std::pair<std::string const, std::string> > >(std::_Rb_tree_node<std::pair<std::string const, std::string> >*)
FUNC 48fc 2a 0 std::_Rb_tree<std::string, std::pair<std::string const, std::string>, std::_Select1st<std::pair<std::string const, std::string> >, std::less<std::string>, std::allocator<std::pair<std::string const, std::string> > >::_M_put_node(std::_Rb_tree_node<std::pair<std::string const, std::string> >*)
FUNC 4926 12 0 std::_Rb_tree<std::string, std::pair<std::string const, std::string>, std::_Select1st<std::pair<std::string const, std::string> >, std::less<std::string>, std::allocator<std::pair<std::string const, std::string> > >::_M_end()
FUNC 4938 8d 0 std::_Rb_tree<std::string, std::pair<std::string const, std::string>, std::_Select1st<std::pair<std::string const, std::string> >, std::less<std::string>, std::allocator<std::pair<std::string const, std::string> > >::_M_lower_bound(std::_Rb_tree_node<std::pair<std::string const, std::string> >*, std::_Rb_tree_node<std::pair<std::string const, std::string> >*, std::string const&)
FUNC 49c6 24 0 std::_Rb_tree<std::string, std::pair<std::string const, std::string>, std::_Select1st<std::pair<std::string const, std::string> >, std::less<std::string>, std::allocator<std::pair<std::string const, std::string> > >::_M_get_node()
FUNC 49ea 6b 0 std::allocator_traits<std::allocator<std::_Rb_tree_node<std::pair<const std::basic_string<char, std::char_traits<char>, std::allocator<char> >, std::basic_string<char, std::char_traits<char>, std::allocator<char> > > > > >::construct<std::_Rb_tree_node<std::pair<const std::basic_string<char>, std::basic_string<char> > >, const std::piecewise_construct_t&, std::tuple<std::basic_string<char, std::char_traits<char>, std::allocator<char> >&&>, std::tuple<> >
FUNC 4a56 28 0 std::_Rb_tree_const_iterator<std::pair<std::string const, std::string> >::_M_const_cast() const
FUNC 4a7e 12 0 std::_Rb_tree<std::string, std::pair<std::string const, std::string>, std::_Select1st<std::pair<std::string const, std::string> >, std::less<std::string>, std::allocator<std::pair<std::string const, std::string> > >::_M_rightmost()
FUNC 4a90 2c 0 std::_Rb_tree<std::string, std::pair<std::string const, std::string>, std::_Select1st<std::pair<std::string const, std::string> >, std::less<std::string>, std::allocator<std::pair<std::string const, std::string> > >::_S_key(std::_Rb_tree_node_base const*)
FUNC 4abc 12 0 std::_Rb_tree<std::string, std::pair<std::string const, std::string>, std::_Select1st<std::pair<std::string const, std::string> >, std::less<std::string>, std::allocator<std::pair<std::string const, std::string> > >::size() const
FUNC 4ace e 0 std::_Rb_tree_node<std::pair<std::string const, std::string> >*& std::forward<std::_Rb_tree_node<std::pair<std::string const, std::string> >*&>(std::remove_reference<std::_Rb_tree_node<std::pair<std::string const, std::string> >*&>::type&)
FUNC 4adc 43 0 std::pair<std::_Rb_tree_node_base*, std::_Rb_tree_node_base*>::pair<std::_Rb_tree_node<std::pair<std::string const, std::string> >*&, std::_Rb_tree_node<std::pair<std::string const, std::string> >*&, void>(std::_Rb_tree_node<std::pair<std::string const, std::string> >*&, std::_Rb_tree_node<std::pair<std::string const, std::string> >*&)
FUNC 4b20 16d 0 std::_Rb_tree<std::string, std::pair<std::string const, std::string>, std::_Select1st<std::pair<std::string const, std::string> >, std::less<std::string>, std::allocator<std::pair<std::string const, std::string> > >::_M_get_insert_unique_pos(std::string const&)
FUNC 4c8e 12 0 std::_Rb_tree<std::string, std::pair<std::string const, std::string>, std::_Select1st<std::pair<std::string const, std::string> >, std::less<std::string>, std::allocator<std::pair<std::string const, std::string> > >::_M_leftmost()
FUNC 4ca0 28 0 std::_Rb_tree_iterator<std::pair<std::string const, std::string> >::operator--()
FUNC 4cc8 28 0 std::_Rb_tree_iterator<std::pair<std::string const, std::string> >::operator++()
FUNC 4cf0 12 0 std::_Rb_tree<std::string, std::pair<std::string const, std::string>, std::_Select1st<std::pair<std::string const, std::string> >, std::less<std::string>, std::allocator<std::pair<std::string const, std::string> > >::_S_value(std::_Rb_tree_node<std::pair<std::string const, std::string> > const*)
FUNC 4d02 12 0 std::_Select1st<std::pair<std::string const, std::string> >::operator()(std::pair<std::string const, std::string> const&) const
FUNC 4d14 74 0 __gnu_cxx::new_allocator<std::basic_string<char, std::char_traits<char>, std::allocator<char> > >::construct<std::basic_string<char>, const std::basic_string<char, std::char_traits<char>, std::allocator<char> >&>
FUNC 4d88 22 0 std::vector<std::string, std::allocator<std::string> >::max_size() const
FUNC 4daa 2b 0 unsigned long const& std::max<unsigned long>(unsigned long const&, unsigned long const&)
FUNC 4dd6 42 0 __gnu_cxx::new_allocator<std::string>::allocate(unsigned long, void const*)
FUNC 4e18 25 0 std::move_iterator<std::string*> std::__make_move_if_noexcept_iterator<std::string*, std::move_iterator<std::string*> >(std::string*)
FUNC 4e3d 31 0 std::string* std::__uninitialized_copy_a<std::move_iterator<std::string*>, std::string*, std::string>(std::move_iterator<std::string*>, std::move_iterator<std::string*>, std::string*, std::allocator<std::string>&)
FUNC 4e6e 25 0 std::enable_if<std::allocator_traits<std::allocator<std::string> >::__destroy_helper<std::string>::value, void>::type std::allocator_traits<std::allocator<std::string> >::_S_destroy<std::string>(std::allocator<std::string>&, std::string*)
FUNC 4e94 22 0 __gnu_cxx::new_allocator<std::string>::deallocate(std::string*, unsigned long)
FUNC 4eb6 1a 0 std::allocator<std::string>::allocator()
FUNC 4ed0 a 0 __gnu_cxx::new_allocator<std::string>::~new_allocator()
FUNC 4eda 37 0 void std::_Destroy_aux<false>::__destroy<std::string*>(std::string*, std::string*)
FUNC 4f12 a 0 __gnu_cxx::new_allocator<std::_Rb_tree_node<std::pair<std::string const, std::string> > >::new_allocator()
FUNC 4f1c 22 0 __gnu_cxx::new_allocator<std::_Rb_tree_node<std::pair<std::string const, std::string> > >::deallocate(std::_Rb_tree_node<std::pair<std::string const, std::string> >*, unsigned long)
FUNC 4f3e 4b 0 __gnu_cxx::new_allocator<std::_Rb_tree_node<std::pair<std::string const, std::string> > >::allocate(unsigned long, void const*)
FUNC 4f89 6b 0 std::allocator_traits<std::allocator<std::_Rb_tree_node<std::pair<const std::basic_string<char, std::char_traits<char>, std::allocator<char> >, std::basic_string<char, std::char_traits<char>, std::allocator<char> > > > > >::_S_construct<std::_Rb_tree_node<std::pair<const std::basic_string<char>, std::basic_string<char> > >, const std::piecewise_construct_t&, std::tuple<std::basic_string<char, std::char_traits<char>, std::allocator<char> >&&>, std::tuple<> >
FUNC 4ff4 12 0 std::_Rb_tree<std::string, std::pair<std::string const, std::string>, std::_Select1st<std::pair<std::string const, std::string> >, std::less<std::string>, std::allocator<std::pair<std::string const, std::string> > >::_S_value(std::_Rb_tree_node_base const*)
FUNC 5006 29 0 std::_Rb_tree<std::string, std::pair<std::string const, std::string>, std::_Select1st<std::pair<std::string const, std::string> >, std::less<std::string>, std::allocator<std::pair<std::string const, std::string> > >::begin()
FUNC 502f 1a 0 std::allocator_traits<std::allocator<std::string> >::max_size(std::allocator<std::string> const&)
FUNC 504a e 0 std::_Vector_base<std::string, std::allocator<std::string> >::_M_get_Tp_allocator() const
FUNC 5058 14 0 __gnu_cxx::new_allocator<std::string>::max_size() const
FUNC 506c 19 0 std::move_iterator<std::string*>::move_iterator(std::string*)
FUNC 5085 2d 0 std::string* std::uninitialized_copy<std::move_iterator<std::string*>, std::string*>(std::move_iterator<std::string*>, std::move_iterator<std::string*>, std::string*)
FUNC 50b2 1e 0 void __gnu_cxx::new_allocator<std::string>::destroy<std::string>(std::string*)
FUNC 50d0 a 0 __gnu_cxx::new_allocator<std::string>::new_allocator()
FUNC 50da e 0 std::string* std::__addressof<std::string>(std::string&)
FUNC 50e8 1a 0 void std::_Destroy<std::string>(std::string*)
FUNC 5102 14 0 __gnu_cxx::new_allocator<std::_Rb_tree_node<std::pair<std::string const, std::string> > >::max_size() const
FUNC 5116 a8 0 __gnu_cxx::new_allocator<std::_Rb_tree_node<std::pair<const std::basic_string<char, std::char_traits<char>, std::allocator<char> >, std::basic_string<char, std::char_traits<char>, std::allocator<char> > > > >::construct<std::_Rb_tree_node<std::pair<const std::basic_string<char>, std::basic_string<char> > >, const std::piecewise_construct_t&, std::tuple<std::basic_string<char, std::char_traits<char>, std::allocator<char> >&&>, std::tuple<> >
FUNC 51be 1a 0 std::enable_if<std::allocator_traits<std::allocator<std::string> >::__maxsize_helper<std::allocator<std::string> const>::value, unsigned long>::type std::allocator_traits<std::allocator<std::string> >::_S_max_size<std::allocator<std::string> const>(std::allocator<std::string> const&)
FUNC 51d8 ad 0 std::string* std::__uninitialized_copy<false>::__uninit_copy<std::move_iterator<std::string*>, std::string*>(std::move_iterator<std::string*>, std::move_iterator<std::string*>, std::string*)
FUNC 5286 a7 0 std::_Rb_tree_node<std::pair<std::string const, std::string> >::_Rb_tree_node<std::piecewise_construct_t const&, std::tuple<std::string&&>, std::tuple<> >(std::piecewise_construct_t const&, std::tuple<std::string&&>&&, std::tuple<>&&)
FUNC 532d 28 0 bool std::operator!=<std::string*>(std::move_iterator<std::string*> const&, std::move_iterator<std::string*> const&)
FUNC 5356 20 0 std::move_iterator<std::string*>::operator++()
FUNC 5376 1d 0 std::move_iterator<std::string*>::operator*() const
FUNC 5393 48 0 std::_Construct<std::basic_string<char>, std::basic_string<char, std::char_traits<char>, std::allocator<char> > >
FUNC 53dc 32 0 std::pair<std::string const, std::string>::pair<std::string&&>(std::piecewise_construct_t, std::tuple<std::string&&>, std::tuple<>)
FUNC 540e 39 0 bool std::operator==<std::string*>(std::move_iterator<std::string*> const&, std::move_iterator<std::string*> const&)
FUNC 5447 1a 0 std::__get_helper<0ul, std::basic_string<char>&&>
FUNC 5461 1a 0 std::__add_ref<std::tuple_element<0ul, std::tuple<std::string&&> >::type>::type std::get<0ul, std::string&&>(std::tuple<std::string&&>&)
FUNC 547c 6e 0 std::pair<std::string const, std::string>::pair<std::string&&, 0ul>(std::tuple<std::string&&>&, std::tuple<>&, std::_Index_tuple<0ul>, std::_Index_tuple<>)
FUNC 54ea 11 0 std::move_iterator<std::string*>::base() const
FUNC 5500 f8 0 google_breakpad::ExceptionHandler::InstallHandlersLocked()
FUNC 5600 7c 0 google_breakpad::ExceptionHandler::RestoreHandlersLocked()
FUNC 5680 361 0 google_breakpad::ExceptionHandler::~ExceptionHandler()
FUNC 59f0 ce 0 google_breakpad::ExceptionHandler::SendContinueSignalToChild()
FUNC 5ac0 48f 0 google_breakpad::ExceptionHandler::GenerateDump(google_breakpad::ExceptionHandler::CrashContext*)
FUNC 5f50 1cc 0 google_breakpad::ExceptionHandler::HandleSignal(int, siginfo_t*, void*)
FUNC 6120 1ce 0 google_breakpad::ExceptionHandler::SignalHandler(int, siginfo_t*, void*)
FUNC 62f0 56 0 google_breakpad::ExceptionHandler::SimulateSignalDelivery(int)
FUNC 6350 c6 0 google_breakpad::ExceptionHandler::WaitForContinueSignal()
FUNC 6420 d0 0 google_breakpad::ExceptionHandler::DoDump(int, void const*, unsigned long)
FUNC 64f0 82 0 google_breakpad::ExceptionHandler::ThreadEntry(void*)
FUNC 6580 168 0 google_breakpad::ExceptionHandler::WriteMinidump()
FUNC 66f0 e0 0 google_breakpad::ExceptionHandler::AddMappingInfo(std::string const&, unsigned char const*, unsigned long, unsigned long, unsigned long)
FUNC 67d0 6d 0 google_breakpad::ExceptionHandler::RegisterAppMemory(void*, unsigned long)
FUNC 6840 41 0 google_breakpad::ExceptionHandler::UnregisterAppMemory(void*)
FUNC 6890 1b5 0 google_breakpad::ExceptionHandler::WriteMinidumpForChild(int, int, std::string const&, bool (*)(google_breakpad::MinidumpDescriptor const&, void*, bool), void*)
FUNC 6a50 8 0 google_breakpad::SetFirstChanceExceptionHandler(bool (*)(int, siginfo_t*, void*))
FUNC 6a60 35f 0 google_breakpad::ExceptionHandler::ExceptionHandler(google_breakpad::MinidumpDescriptor const&, bool (*)(void*), bool (*)(google_breakpad::MinidumpDescriptor const&, void*, bool), void*, bool, int)
FUNC 6dc0 1c1 0 google_breakpad::ExceptionHandler::WriteMinidump(std::string const&, bool (*)(google_breakpad::MinidumpDescriptor const&, void*, bool), void*)
FUNC 6f90 f9 0 void std::vector<google_breakpad::ExceptionHandler*, std::allocator<google_breakpad::ExceptionHandler*> >::_M_emplace_back_aux<google_breakpad::ExceptionHandler* const&>(google_breakpad::ExceptionHandler* const&)
FUNC 7090 ab 0 google_breakpad::MinidumpDescriptor::MinidumpDescriptor(google_breakpad::MinidumpDescriptor const&)
FUNC 7140 2de 0 google_breakpad::MinidumpDescriptor::UpdatePath()
FUNC 7420 c6 0 google_breakpad::MinidumpDescriptor::operator=(google_breakpad::MinidumpDescriptor const&)
FUNC 74f0 34 0 logger::write(char const*, unsigned long)
FUNC 7530 1d29 0 google_breakpad::WriteMicrodump(int, void const*, unsigned long, std::list<google_breakpad::MappingEntry, std::allocator<google_breakpad::MappingEntry> > const&, bool, unsigned long, bool, google_breakpad::MicrodumpExtraInfo const&)
FUNC 9260 3f0 0 void std::vector<unsigned char, google_breakpad::PageStdAllocator<unsigned char> >::_M_range_insert<unsigned char const*>(__gnu_cxx::__normal_iterator<unsigned char*, std::vector<unsigned char, google_breakpad::PageStdAllocator<unsigned char> > >, unsigned char const*, unsigned char const*, std::forward_iterator_tag)
FUNC 9650 6 0 google_breakpad::LinuxDumper::LateInit()
FUNC 9660 69 0 google_breakpad::LinuxDumper::~LinuxDumper()
FUNC 96d0 12 0 google_breakpad::LinuxDumper::~LinuxDumper()
FUNC 96f0 14 0 google_breakpad::LinuxDumper::SetCrashInfoFromSigInfo(siginfo_t const&)
FUNC 9710 1f8 0 google_breakpad::LinuxDumper::GetCrashSignalString() const
FUNC 9910 4a 0 google_breakpad::LinuxDumper::GetMappingAbsolutePath(google_breakpad::MappingInfo const&, char*) const
FUNC 9960 189 0 ElfFileSoName
FUNC 9af0 e6 0 google_breakpad::LinuxDumper::GetMappingEffectiveNameAndPath(google_breakpad::MappingInfo const&, char*, unsigned long, char*, unsigned long)
FUNC 9be0 131 0 google_breakpad::LinuxDumper::ReadAuxv()
FUNC 9d20 32 0 google_breakpad::LinuxDumper::Init()
FUNC 9d60 46 0 google_breakpad::LinuxDumper::StackHasPointerToMapping(unsigned char const*, unsigned long, unsigned long, google_breakpad::MappingInfo const&)
FUNC 9db0 4b 0 google_breakpad::LinuxDumper::FindMapping(void const*) const
FUNC 9e00 73 0 google_breakpad::LinuxDumper::GetStackInfo(void const**, unsigned long*, unsigned long)
FUNC 9e80 43 0 google_breakpad::LinuxDumper::FindMappingNoBias(unsigned long) const
FUNC 9ed0 1fc 0 google_breakpad::LinuxDumper::SanitizeStackCopy(unsigned char*, unsigned long, unsigned long, unsigned long)
FUNC a0d0 224 0 google_breakpad::LinuxDumper::HandleDeletedFileInMapping(char*) const
FUNC a300 323 0 google_breakpad::LinuxDumper::ElfFileIdentifierForMapping(google_breakpad::MappingInfo const&, bool, unsigned int, google_breakpad::wasteful_vector<unsigned char>&)
FUNC a630 601 0 google_breakpad::LinuxDumper::LinuxDumper(int, char const*)
FUNC ac40 7fd 0 google_breakpad::LinuxDumper::EnumerateMappings()
FUNC b440 2a2 0 std::vector<unsigned long, google_breakpad::PageStdAllocator<unsigned long> >::_M_default_append(unsigned long)
FUNC b6f0 219 0 void std::vector<google_breakpad::MappingInfo*, google_breakpad::PageStdAllocator<google_breakpad::MappingInfo*> >::_M_emplace_back_aux<google_breakpad::MappingInfo* const&>(google_breakpad::MappingInfo* const&)
FUNC b910 3 0 google_breakpad::LinuxPtraceDumper::IsPostMortem() const
FUNC b920 bc 0 google_breakpad::LinuxPtraceDumper::CopyFromProcess(void*, int, void const*, unsigned long)
FUNC b9e0 c8 0 google_breakpad::LinuxPtraceDumper::BuildProcPath(char*, int, char const*) const
FUNC bab0 ba 0 google_breakpad::LinuxPtraceDumper::ThreadsResume()
FUNC bb70 27 0 google_breakpad::LinuxPtraceDumper::LinuxPtraceDumper(int)
FUNC bba0 d4 0 google_breakpad::LinuxPtraceDumper::ReadRegisterSet(google_breakpad::ThreadInfo*, int)
FUNC bc80 ca 0 google_breakpad::LinuxPtraceDumper::ReadRegisters(google_breakpad::ThreadInfo*, int)
FUNC bd50 4ed 0 google_breakpad::LinuxPtraceDumper::GetThreadInfoByIndex(unsigned long, google_breakpad::ThreadInfo*)
FUNC c240 251 0 google_breakpad::LinuxPtraceDumper::ThreadsSuspend()
FUNC c4a0 37d 0 google_breakpad::LinuxPtraceDumper::EnumerateThreads()
FUNC c820 13 0 google_breakpad::LinuxPtraceDumper::~LinuxPtraceDumper()
FUNC c840 20 0 google_breakpad::LinuxPtraceDumper::~LinuxPtraceDumper()
FUNC c860 2a2 0 std::vector<int, google_breakpad::PageStdAllocator<int> >::_M_default_append(unsigned long)
FUNC cb10 21a 0 void std::vector<int, google_breakpad::PageStdAllocator<int> >::_M_emplace_back_aux<int const&>(int const&)
FUNC cd30 3a 0 MinidumpWriter::~MinidumpWriter
FUNC cd70 e22 0 MinidumpWriter::WriteThreadListStream
FUNC dba0 21e6 0 MinidumpWriter::Dump
FUNC fd90 53b 0 WriteMinidumpImpl
FUNC 102d0 f9 0 google_breakpad::WriteMinidump(char const*, int, void const*, unsigned long, bool, unsigned long, bool)
FUNC 103d0 f9 0 google_breakpad::WriteMinidump(int, int, void const*, unsigned long, bool, unsigned long, bool)
FUNC 104d0 47 0 google_breakpad::WriteMinidump(char const*, int, void const*, unsigned long, std::list<google_breakpad::MappingEntry, std::allocator<google_breakpad::MappingEntry> > const&, std::list<google_breakpad::AppMemory, std::allocator<google_breakpad::AppMemory> > const&, bool, unsigned long, bool)
FUNC 10520 46 0 google_breakpad::WriteMinidump(int, int, void const*, unsigned long, std::list<google_breakpad::MappingEntry, std::allocator<google_breakpad::MappingEntry> > const&, std::list<google_breakpad::AppMemory, std::allocator<google_breakpad::AppMemory> > const&, bool, unsigned long, bool)
FUNC 10570 48 0 google_breakpad::WriteMinidump(char const*, long, int, void const*, unsigned long, std::list<google_breakpad::MappingEntry, std::allocator<google_breakpad::MappingEntry> > const&, std::list<google_breakpad::AppMemory, std::allocator<google_breakpad::AppMemory> > const&, bool, unsigned long, bool)
FUNC 105c0 47 0 google_breakpad::WriteMinidump(int, long, int, void const*, unsigned long, std::list<google_breakpad::MappingEntry, std::allocator<google_breakpad::MappingEntry> > const&, std::list<google_breakpad::AppMemory, std::allocator<google_breakpad::AppMemory> > const&, bool, unsigned long, bool)
FUNC 10610 68c 0 google_breakpad::WriteMinidump(char const*, int, int)
FUNC 10ca0 45e 0 google_breakpad::WriteMinidump(char const*, std::list<google_breakpad::MappingEntry, std::allocator<google_breakpad::MappingEntry> > const&, std::list<google_breakpad::AppMemory, std::allocator<google_breakpad::AppMemory> > const&, google_breakpad::LinuxDumper*)
FUNC 11100 147 0 google_breakpad::PageAllocator::Alloc(unsigned long)
FUNC 11250 22 0 google_breakpad::TypedMDRVA<unsigned int>::~TypedMDRVA()
FUNC 11280 22 0 google_breakpad::TypedMDRVA<MDRawContextAMD64>::~TypedMDRVA()
FUNC 112b0 22 0 google_breakpad::TypedMDRVA<MDRawLinkMap64>::~TypedMDRVA()
FUNC 112e0 22 0 google_breakpad::TypedMDRVA<MDRawDebug64>::~TypedMDRVA()
FUNC 11310 231 0 void std::vector<MDMemoryDescriptor, google_breakpad::PageStdAllocator<MDMemoryDescriptor> >::_M_emplace_back_aux<MDMemoryDescriptor const&>(MDMemoryDescriptor const&)
FUNC 11550 1df 0 std::vector<char, google_breakpad::PageStdAllocator<char> >::reserve(unsigned long)
FUNC 11730 244 0 std::vector<char, google_breakpad::PageStdAllocator<char> >::_M_default_append(unsigned long)
FUNC 11980 1a 0 google_breakpad::MinidumpFileWriter::MinidumpFileWriter()
FUNC 119a0 78 0 google_breakpad::MinidumpFileWriter::Open(char const*)
FUNC 11a20 2c 0 google_breakpad::MinidumpFileWriter::SetFile(int)
FUNC 11a50 5d 0 google_breakpad::MinidumpFileWriter::Close()
FUNC 11ab0 15 0 google_breakpad::MinidumpFileWriter::~MinidumpFileWriter()
FUNC 11ad0 b6 0 google_breakpad::MinidumpFileWriter::Allocate(unsigned long)
FUNC 11b90 ff 0 google_breakpad::MinidumpFileWriter::Copy(unsigned int, void const*, long)
FUNC 11c90 b4 0 google_breakpad::MinidumpFileWriter::CopyStringToMDString(char const*, unsigned int, google_breakpad::TypedMDRVA<MDString>*)
FUNC 11d50 b5 0 google_breakpad::MinidumpFileWriter::CopyStringToMDString(wchar_t const*, unsigned int, google_breakpad::TypedMDRVA<MDString>*)
FUNC 11e10 41 0 google_breakpad::UntypedMDRVA::Allocate(unsigned long)
FUNC 11e60 88 0 google_breakpad::UntypedMDRVA::Copy(unsigned int, void const*, unsigned long)
FUNC 11ef0 c1 0 google_breakpad::MinidumpFileWriter::WriteMemory(void const*, unsigned long, MDMemoryDescriptor*)
FUNC 11fc0 5 0 google_breakpad::MinidumpFileWriter::WriteString(wchar_t const*, unsigned int, MDLocationDescriptor*)
FUNC 11fd0 5 0 google_breakpad::MinidumpFileWriter::WriteString(char const*, unsigned int, MDLocationDescriptor*)
FUNC 11fe0 22 0 google_breakpad::TypedMDRVA<MDString>::~TypedMDRVA()
FUNC 12010 1d9 0 bool google_breakpad::MinidumpFileWriter::WriteStringCore<wchar_t>(wchar_t const*, unsigned int, MDLocationDescriptor*)
FUNC 121f0 1d7 0 bool google_breakpad::MinidumpFileWriter::WriteStringCore<char>(char const*, unsigned int, MDLocationDescriptor*)
FUNC 123d0 91 0 google_breakpad::UTF8ToUTF16Char(char const*, int, unsigned short*)
FUNC 12470 56 0 google_breakpad::UTF32ToUTF16Char(wchar_t, unsigned short*)
FUNC 124d0 15b 0 google_breakpad::UTF16ToUTF8(std::vector<unsigned short, std::allocator<unsigned short> > const&, bool)
FUNC 12630 d3 0 google_breakpad::UTF32ToUTF16(wchar_t const*, std::vector<unsigned short, std::allocator<unsigned short> >*)
FUNC 12710 cb 0 google_breakpad::UTF8ToUTF16(char const*, std::vector<unsigned short, std::allocator<unsigned short> >*)
FUNC 127e0 283 0 std::vector<unsigned short, std::allocator<unsigned short> >::_M_fill_insert(__gnu_cxx::__normal_iterator<unsigned short*, std::vector<unsigned short, std::allocator<unsigned short> > >, unsigned long, unsigned short const&)
FUNC 12a70 151 0 std::vector<unsigned short, std::allocator<unsigned short> >::_M_default_append(unsigned long)
FUNC 12bd0 1f 0 google_breakpad::IsValidElf(void const*)
FUNC 12bf0 5 0 google_breakpad::ElfClass(void const*)
FUNC 12c00 450 0 google_breakpad::FindElfSection(void const*, char const*, unsigned int, void const**, unsigned long*)
FUNC 13050 2a9 0 google_breakpad::FindElfSegments(void const*, unsigned int, google_breakpad::wasteful_vector<google_breakpad::ElfSegment>*)
FUNC 13300 247 0 void std::vector<google_breakpad::ElfSegment, google_breakpad::PageStdAllocator<google_breakpad::ElfSegment> >::_M_emplace_back_aux<google_breakpad::ElfSegment const&>(google_breakpad::ElfSegment const&)
FUNC 13550 d7 0 google_breakpad::bytes_to_hex_string
FUNC 13630 13 0 google_breakpad::FileID::FileID(char const*)
FUNC 13650 c7 0 google_breakpad::FileID::ConvertIdentifierToUUIDString(google_breakpad::wasteful_vector<unsigned char> const&)
FUNC 13720 1c 0 google_breakpad::FileID::ConvertIdentifierToString(google_breakpad::wasteful_vector<unsigned char> const&)
FUNC 13740 7e 0 google_breakpad::ElfClassBuildIDNoteIdentifier
FUNC 137c0 2aa 0 google_breakpad::FileID::ElfFileIdentifierFromMappedFile(void const*, google_breakpad::wasteful_vector<unsigned char>&)
FUNC 13a70 5f 0 google_breakpad::FileID::ElfFileIdentifier(google_breakpad::wasteful_vector<unsigned char>&)
FUNC 13ad0 244 0 std::vector<unsigned char, google_breakpad::PageStdAllocator<unsigned char> >::_M_default_append(unsigned long)
FUNC 13d20 b5 0 CreateGUID(MDGUID*)
FUNC 13de0 c0 0 GUIDToString(MDGUID const*, char*, int)
FUNC 13ea0 23 0 GUIDGenerator::InitOnceImpl()
FUNC 13ed0 1e 0 my_strlen
FUNC 13ef0 33 0 my_strcmp
FUNC 13f30 56 0 my_strncmp
FUNC 13f90 4c 0 my_strtoui
FUNC 13fe0 36 0 my_uint_len
FUNC 14020 3a 0 my_uitos
FUNC 14060 2b 0 my_strchr
FUNC 14090 26 0 my_strrchr
FUNC 140c0 2b 0 my_memchr
FUNC 140f0 64 0 my_read_hex_ptr
FUNC 14160 3a 0 my_read_decimal_ptr
FUNC 141a0 1f 0 my_memset
FUNC 141c0 38 0 my_strlcpy
FUNC 14200 45 0 my_strlcat
FUNC 14250 6c 0 my_isspace
FUNC 142c0 10 0 google_breakpad::MemoryMappedFile::MemoryMappedFile()
FUNC 142d0 4b 0 google_breakpad::MemoryMappedFile::Unmap()
FUNC 14320 5 0 google_breakpad::MemoryMappedFile::~MemoryMappedFile()
FUNC 14330 17f 0 google_breakpad::MemoryMappedFile::Map(char const*, unsigned long)
FUNC 144b0 14 0 google_breakpad::MemoryMappedFile::MemoryMappedFile(char const*, unsigned long)
FUNC 144d0 40 0 google_breakpad::SafeReadLink(char const*, char*, unsigned long)
FUNC 14510 f 0 CrashGenerationClientImpl::~CrashGenerationClientImpl
FUNC 14520 13 0 CrashGenerationClientImpl::~CrashGenerationClientImpl
FUNC 14540 202 0 CrashGenerationClientImpl::RequestDump
FUNC 14750 24 0 google_breakpad::CrashGenerationClient::TryCreate(int)
FUNC 14780 f 0 google_breakpad::CrashGenerationClient::~CrashGenerationClient()
FUNC 14790 13 0 google_breakpad::CrashGenerationClient::~CrashGenerationClient()
FUNC 147b0 8 0 google_breakpad::ThreadInfo::GetInstructionPointer() const
FUNC 147c0 386 0 google_breakpad::ThreadInfo::FillCPUContext(MDRawContextAMD64*) const
FUNC 14b50 43 0 google_breakpad::ThreadInfo::GetGeneralPurposeRegisters(void**, unsigned long*)
FUNC 14ba0 46 0 google_breakpad::ThreadInfo::GetFloatingPointRegisters(void**, unsigned long*)
FUNC 14bf0 8 0 google_breakpad::UContextReader::GetStackPointer(ucontext const*)
FUNC 14c00 8 0 google_breakpad::UContextReader::GetInstructionPointer(ucontext const*)
FUNC 14c10 2e6 0 google_breakpad::UContextReader::FillCPUContext(MDRawContextAMD64*, ucontext const*, _libc_fpstate const*)
FUNC 14f00 d7 0 isLegalUTF8
FUNC 14fe0 105 0 ConvertUTF32toUTF16
FUNC 150f0 e6 0 ConvertUTF16toUTF32
FUNC 151e0 1fa 0 ConvertUTF16toUTF8
FUNC 153e0 2b 0 isLegalUTF8Sequence
FUNC 15410 27f 0 ConvertUTF8toUTF16
FUNC 15690 1c3 0 ConvertUTF32toUTF8
FUNC 15860 2a7 0 ConvertUTF8toUTF32
FUNC 15b08 58 0 WriteCallback
FUNC 15b60 76a 0 google_breakpad::HTTPUpload::SendRequest(std::string const&, std::map<std::string, std::string, std::less<std::string>, std::allocator<std::pair<std::string const, std::string> > > const&, std::map<std::string, std::string, std::less<std::string>, std::allocator<std::pair<std::string const, std::string> > > const&, std::string const&, std::string const&, std::string const&, std::string*, long*, std::string*)
FUNC 162ca 4d 0 google_breakpad::HTTPUpload::CheckCurlLib(void*)
FUNC 16318 ef 0 google_breakpad::HTTPUpload::CheckParameters(std::map<std::string, std::string, std::less<std::string>, std::allocator<std::pair<std::string const, std::string> > > const&)
FUNC 16408 1a 0 std::map<std::string, std::string, std::less<std::string>, std::allocator<std::pair<std::string const, std::string> > >::begin() const
FUNC 16422 1a 0 std::map<std::string, std::string, std::less<std::string>, std::allocator<std::pair<std::string const, std::string> > >::end() const
FUNC 1643c 22 0 std::_Rb_tree_const_iterator<std::pair<std::string const, std::string> >::operator!=(std::_Rb_tree_const_iterator<std::pair<std::string const, std::string> > const&) const
FUNC 1645e 28 0 std::_Rb_tree_const_iterator<std::pair<std::string const, std::string> >::operator++()
FUNC 16486 21 0 std::_Rb_tree_const_iterator<std::pair<std::string const, std::string> >::operator->() const
FUNC 164a8 29 0 std::_Rb_tree<std::string, std::pair<std::string const, std::string>, std::_Select1st<std::pair<std::string const, std::string> >, std::less<std::string>, std::allocator<std::pair<std::string const, std::string> > >::begin() const
FUNC 164d2 29 0 std::_Rb_tree<std::string, std::pair<std::string const, std::string>, std::_Select1st<std::pair<std::string const, std::string> >, std::less<std::string>, std::allocator<std::pair<std::string const, std::string> > >::end() const
FUNC 164fb e 0 std::pair<std::string const, std::string> const* std::__addressof<std::pair<std::string const, std::string> const>(std::pair<std::string const, std::string> const&)
FUNC 1650a 19 0 std::_Rb_tree_const_iterator<std::pair<std::string const, std::string> >::_Rb_tree_const_iterator(std::_Rb_tree_node<std::pair<std::string const, std::string> > const*)
PUBLIC 1fc0 0 _init
PUBLIC 25f0 0 google_breakpad::LineReader::PopLine(unsigned int) [clone .part.7]
PUBLIC 2610 0 google_breakpad::TypedMDRVA<MDRawDirectory>::CopyIndex(unsigned int, MDRawDirectory*) [clone .isra.34] [clone .part.35]
PUBLIC 2630 0 google_breakpad::TypedMDRVA<MDRawDirectory>::CopyIndex(unsigned int, MDRawDirectory*) [clone .isra.34]
PUBLIC 264e 0 google_breakpad::TypedMDRVA<unsigned int>::AllocateObjectAndArray(unsigned long, unsigned long) [clone .part.36]
PUBLIC 266e 0 google_breakpad::TypedMDRVA<unsigned int>::CopyIndexAfterObject(unsigned int, void const*, unsigned long) [clone .isra.37] [clone .part.38]
PUBLIC 268e 0 (anonymous namespace)::MinidumpWriter::WriteFile(MDLocationDescriptor*, char const*)
PUBLIC 285a 0 (anonymous namespace)::MinidumpWriter::WriteProcFile(MDLocationDescriptor*, int, char const*)
PUBLIC 28c2 0 google_breakpad::TypedMDRVA<MDString>::CopyIndexAfterObject(unsigned int, void const*, unsigned long) [clone .isra.4] [clone .part.5]
PUBLIC 28e2 0 google_breakpad::TypedMDRVA<MDString>::AllocateObjectAndArray(unsigned long, unsigned long) [clone .part.6]
PUBLIC 2902 0 _start
PUBLIC 2930 0 deregister_tm_clones
PUBLIC 2960 0 register_tm_clones
PUBLIC 29a0 0 __do_global_dtors_aux
PUBLIC 29c0 0 frame_dummy
PUBLIC 29ed 0 dumpCallback(google_breakpad::MinidumpDescriptor const&, void*, bool)
PUBLIC 2a37 0 genFloatingException()
PUBLIC 2a4d 0 genAbortException()
PUBLIC 2a56 0 UploadMinidump(std::string&)
PUBLIC 2d52 0 read_directory(std::string const&, std::vector<std::string, std::allocator<std::string> >&)
PUBLIC 2e59 0 CheckForMiniDumpFiles(std::vector<std::string, std::allocator<std::string> >&)
PUBLIC 2fc9 0 main
PUBLIC 3182 0 __static_initialization_and_destruction_0(int, int)
PUBLIC 31bf 0 _GLOBAL__sub_I__Z12dumpCallbackRKN15google_breakpad18MinidumpDescriptorEPvb
PUBLIC 31d4 0 operator new(unsigned long, void*)
PUBLIC 31e6 0 operator delete(void*, void*)
PUBLIC 31f4 0 google_breakpad::MicrodumpExtraInfo::MicrodumpExtraInfo()
PUBLIC 322e 0 google_breakpad::MinidumpDescriptor::MinidumpDescriptor(std::string const&)
PUBLIC 330e 0 google_breakpad::MinidumpDescriptor::path() const
PUBLIC 3320 0 std::map<std::string, std::string, std::less<std::string>, std::allocator<std::pair<std::string const, std::string> > >::~map()
PUBLIC 333a 0 google_breakpad::MinidumpDescriptor::~MinidumpDescriptor()
PUBLIC 3368 0 std::map<std::string, std::string, std::less<std::string>, std::allocator<std::pair<std::string const, std::string> > >::map()
PUBLIC 3382 0 std::_Rb_tree<std::string, std::pair<std::string const, std::string>, std::_Select1st<std::pair<std::string const, std::string> >, std::less<std::string>, std::allocator<std::pair<std::string const, std::string> > >::_Rb_tree_impl<std::less<std::string>, true>::~_Rb_tree_impl()
PUBLIC 339c 0 std::_Rb_tree<std::string, std::pair<std::string const, std::string>, std::_Select1st<std::pair<std::string const, std::string> >, std::less<std::string>, std::allocator<std::pair<std::string const, std::string> > >::~_Rb_tree()
PUBLIC 33d4 0 std::remove_reference<std::string&>::type&& std::move<std::string&>(std::string&)
PUBLIC 33e2 0 std::map<std::string, std::string, std::less<std::string>, std::allocator<std::pair<std::string const, std::string> > >::operator[](std::string&&)
PUBLIC 3512 0 std::string const& std::forward<std::string const&>(std::remove_reference<std::string const&>::type&)
PUBLIC 3520 0 std::vector<std::string, std::allocator<std::string> >::push_back(std::string const&)
PUBLIC 358c 0 std::vector<std::string, std::allocator<std::string> >::begin()
PUBLIC 35b2 0 std::vector<std::string, std::allocator<std::string> >::end()
PUBLIC 35db 0 bool __gnu_cxx::operator!=<std::string*, std::vector<std::string, std::allocator<std::string> > >(__gnu_cxx::__normal_iterator<std::string*, std::vector<std::string, std::allocator<std::string> > > const&, __gnu_cxx::__normal_iterator<std::string*, std::vector<std::string, std::allocator<std::string> > > const&)
PUBLIC 3618 0 __gnu_cxx::__normal_iterator<std::string*, std::vector<std::string, std::allocator<std::string> > >::operator++()
PUBLIC 3638 0 __gnu_cxx::__normal_iterator<std::string*, std::vector<std::string, std::allocator<std::string> > >::operator*() const
PUBLIC 364a 0 std::vector<std::string, std::allocator<std::string> >::vector()
PUBLIC 3664 0 std::vector<std::string, std::allocator<std::string> >::~vector()
PUBLIC 36a8 0 std::_Rb_tree<std::string, std::pair<std::string const, std::string>, std::_Select1st<std::pair<std::string const, std::string> >, std::less<std::string>, std::allocator<std::pair<std::string const, std::string> > >::_Rb_tree()
PUBLIC 36c2 0 std::allocator<std::_Rb_tree_node<std::pair<std::string const, std::string> > >::~allocator()
PUBLIC 36dc 0 std::_Rb_tree<std::string, std::pair<std::string const, std::string>, std::_Select1st<std::pair<std::string const, std::string> >, std::less<std::string>, std::allocator<std::pair<std::string const, std::string> > >::_M_erase(std::_Rb_tree_node<std::pair<std::string const, std::string> >*)
PUBLIC 3740 0 std::_Rb_tree<std::string, std::pair<std::string const, std::string>, std::_Select1st<std::pair<std::string const, std::string> >, std::less<std::string>, std::allocator<std::pair<std::string const, std::string> > >::_M_begin()
PUBLIC 3752 0 std::map<std::string, std::string, std::less<std::string>, std::allocator<std::pair<std::string const, std::string> > >::lower_bound(std::string const&)
PUBLIC 3778 0 std::map<std::string, std::string, std::less<std::string>, std::allocator<std::pair<std::string const, std::string> > >::key_comp() const
PUBLIC 379a 0 std::_Rb_tree_iterator<std::pair<std::string const, std::string> >::operator*() const
PUBLIC 37b0 0 std::less<std::string>::operator()(std::string const&, std::string const&) const
PUBLIC 37da 0 std::map<std::string, std::string, std::less<std::string>, std::allocator<std::pair<std::string const, std::string> > >::end()
PUBLIC 37f4 0 std::_Rb_tree_iterator<std::pair<std::string const, std::string> >::operator==(std::_Rb_tree_iterator<std::pair<std::string const, std::string> > const&) const
PUBLIC 3816 0 std::string&& std::forward<std::string>(std::remove_reference<std::string>::type&)
PUBLIC 3824 0 std::_Tuple_impl<1ul>::_Tuple_impl()
PUBLIC 382e 0 std::_Head_base<0ul, std::string&&, false>::_Head_base<std::string>(std::string&&)
PUBLIC 3854 0 std::_Tuple_impl<0ul, std::string&&>::_Tuple_impl<std::string, , void>(std::string&&)
PUBLIC 3890 0 std::tuple<std::string&&>::tuple<std::string, void>(std::string&&)
PUBLIC 38c0 0 std::_Tuple_impl<0ul, std::string&&>::_M_tail(std::_Tuple_impl<0ul, std::string&&>&)
PUBLIC 38ce 0 std::remove_reference<std::_Tuple_impl<1ul>&>::type&& std::move<std::_Tuple_impl<1ul>&>(std::_Tuple_impl<1ul>&)
PUBLIC 38dc 0 std::_Head_base<0ul, std::string&&, false>::_M_head(std::_Head_base<0ul, std::string&&, false>&)
PUBLIC 38ed 0 std::_Tuple_impl<0ul, std::string&&>::_M_head(std::_Tuple_impl<0ul, std::string&&>&)
PUBLIC 3907 0 std::string&& std::forward<std::string&&>(std::remove_reference<std::string&&>::type&)
PUBLIC 3916 0 std::_Tuple_impl<0ul, std::string&&>::_Tuple_impl(std::_Tuple_impl<0ul, std::string&&>&&)
PUBLIC 3962 0 std::tuple<std::string&&>::tuple(std::tuple<std::string&&>&&)
PUBLIC 3987 0 std::tuple<std::string&&> std::forward_as_tuple<std::string>(std::string&&)
PUBLIC 39bc 0 std::_Rb_tree_const_iterator<std::pair<std::string const, std::string> >::_Rb_tree_const_iterator(std::_Rb_tree_iterator<std::pair<std::string const, std::string> > const&)
PUBLIC 39d8 0 std::piecewise_construct_t const& std::forward<std::piecewise_construct_t const&>(std::remove_reference<std::piecewise_construct_t const&>::type&)
PUBLIC 39e6 0 std::tuple<std::string&&>&& std::forward<std::tuple<std::string&&> >(std::remove_reference<std::tuple<std::string&&> >::type&)
PUBLIC 39f4 0 std::tuple<>&& std::forward<std::tuple<> >(std::remove_reference<std::tuple<> >::type&)
PUBLIC 3a02 0 std::_Rb_tree_iterator<std::pair<std::string const, std::string> > std::_Rb_tree<std::string, std::pair<std::string const, std::string>, std::_Select1st<std::pair<std::string const, std::string> >, std::less<std::string>, std::allocator<std::pair<std::string const, std::string> > >::_M_emplace_hint_unique<std::piecewise_construct_t const&, std::tuple<std::string&&>, std::tuple<> >(std::_Rb_tree_const_iterator<std::pair<std::string const, std::string> >, std::piecewise_construct_t const&, std::tuple<std::string&&>&&, std::tuple<>&&)
PUBLIC 3b19 0 decltype (_S_construct({parm#1}, {parm#2}, (forward<std::string const&>)({parm#3}))) std::allocator_traits<std::allocator<std::string> >::construct<std::string, std::string const&>(std::allocator<std::string>&, std::string*, std::string const&)
PUBLIC 3b52 0 void std::vector<std::string, std::allocator<std::string> >::_M_emplace_back_aux<std::string const&>(std::string const&)
PUBLIC 3d3c 0 __gnu_cxx::__normal_iterator<std::string*, std::vector<std::string, std::allocator<std::string> > >::__normal_iterator(std::string* const&)
PUBLIC 3d58 0 __gnu_cxx::__normal_iterator<std::string*, std::vector<std::string, std::allocator<std::string> > >::base() const
PUBLIC 3d66 0 std::_Vector_base<std::string, std::allocator<std::string> >::_Vector_impl::~_Vector_impl()
PUBLIC 3d80 0 std::_Vector_base<std::string, std::allocator<std::string> >::_Vector_base()
PUBLIC 3d9a 0 std::_Vector_base<std::string, std::allocator<std::string> >::~_Vector_base()
PUBLIC 3dea 0 std::_Vector_base<std::string, std::allocator<std::string> >::_M_get_Tp_allocator()
PUBLIC 3df8 0 void std::_Destroy<std::string*, std::string>(std::string*, std::string*, std::allocator<std::string>&)
PUBLIC 3e22 0 std::_Rb_tree<std::string, std::pair<std::string const, std::string>, std::_Select1st<std::pair<std::string const, std::string> >, std::less<std::string>, std::allocator<std::pair<std::string const, std::string> > >::_Rb_tree_impl<std::less<std::string>, true>::_Rb_tree_impl()
PUBLIC 3e84 0 __gnu_cxx::new_allocator<std::_Rb_tree_node<std::pair<std::string const, std::string> > >::~new_allocator()
PUBLIC 3e8e 0 std::_Rb_tree<std::string, std::pair<std::string const, std::string>, std::_Select1st<std::pair<std::string const, std::string> >, std::less<std::string>, std::allocator<std::pair<std::string const, std::string> > >::_S_right(std::_Rb_tree_node_base*)
PUBLIC 3ea0 0 std::_Rb_tree<std::string, std::pair<std::string const, std::string>, std::_Select1st<std::pair<std::string const, std::string> >, std::less<std::string>, std::allocator<std::pair<std::string const, std::string> > >::_S_left(std::_Rb_tree_node_base*)
PUBLIC 3eb2 0 std::_Rb_tree<std::string, std::pair<std::string const, std::string>, std::_Select1st<std::pair<std::string const, std::string> >, std::less<std::string>, std::allocator<std::pair<std::string const, std::string> > >::_M_destroy_node(std::_Rb_tree_node<std::pair<std::string const, std::string> >*)
PUBLIC 3ef2 0 std::_Rb_tree<std::string, std::pair<std::string const, std::string>, std::_Select1st<std::pair<std::string const, std::string> >, std::less<std::string>, std::allocator<std::pair<std::string const, std::string> > >::lower_bound(std::string const&)
PUBLIC 3f3e 0 std::_Rb_tree<std::string, std::pair<std::string const, std::string>, std::_Select1st<std::pair<std::string const, std::string> >, std::less<std::string>, std::allocator<std::pair<std::string const, std::string> > >::key_comp() const
PUBLIC 3f48 0 bool std::operator< <char, std::char_traits<char>, std::allocator<char> >(std::basic_string<char, std::char_traits<char>, std::allocator<char> > const&, std::basic_string<char, std::char_traits<char>, std::allocator<char> > const&)
PUBLIC 3f70 0 std::_Rb_tree<std::string, std::pair<std::string const, std::string>, std::_Select1st<std::pair<std::string const, std::string> >, std::less<std::string>, std::allocator<std::pair<std::string const, std::string> > >::end()
PUBLIC 3f9a 0 std::_Rb_tree_node<std::pair<std::string const, std::string> >* std::_Rb_tree<std::string, std::pair<std::string const, std::string>, std::_Select1st<std::pair<std::string const, std::string> >, std::less<std::string>, std::allocator<std::pair<std::string const, std::string> > >::_M_create_node<std::piecewise_construct_t const&, std::tuple<std::string&&>, std::tuple<> >(std::piecewise_construct_t const&, std::tuple<std::string&&>&&, std::tuple<>&&)
PUBLIC 4059 0 std::_Rb_tree_node_base*& std::forward<std::_Rb_tree_node_base*&>(std::remove_reference<std::_Rb_tree_node_base*&>::type&)
PUBLIC 4068 0 std::pair<std::_Rb_tree_node_base*, std::_Rb_tree_node_base*>::pair<std::_Rb_tree_node_base*&, void>(std::_Rb_tree_node_base* const&, std::_Rb_tree_node_base*&)
PUBLIC 40a4 0 std::pair<std::_Rb_tree_node_base*, std::_Rb_tree_node_base*>::pair<std::_Rb_tree_node_base*&, std::_Rb_tree_node_base*&, void>(std::_Rb_tree_node_base*&, std::_Rb_tree_node_base*&)
PUBLIC 40e8 0 std::pair<std::_Rb_tree_node_base*, std::_Rb_tree_node_base*>::pair<std::_Rb_tree_node_base*&, void>(std::_Rb_tree_node_base*&, std::_Rb_tree_node_base* const&)
PUBLIC 4124 0 std::_Rb_tree<std::string, std::pair<std::string const, std::string>, std::_Select1st<std::pair<std::string const, std::string> >, std::less<std::string>, std::allocator<std::pair<std::string const, std::string> > >::_M_get_insert_hint_unique_pos(std::_Rb_tree_const_iterator<std::pair<std::string const, std::string> >, std::string const&)
PUBLIC 449d 0 std::_Rb_tree<std::string, std::pair<std::string const, std::string>, std::_Select1st<std::pair<std::string const, std::string> >, std::less<std::string>, std::allocator<std::pair<std::string const, std::string> > >::_S_key(std::_Rb_tree_node<std::pair<std::string const, std::string> > const*)
PUBLIC 44ca 0 std::_Rb_tree<std::string, std::pair<std::string const, std::string>, std::_Select1st<std::pair<std::string const, std::string> >, std::less<std::string>, std::allocator<std::pair<std::string const, std::string> > >::_M_insert_node(std::_Rb_tree_node_base*, std::_Rb_tree_node_base*, std::_Rb_tree_node<std::pair<std::string const, std::string> >*)
PUBLIC 458c 0 std::_Rb_tree_iterator<std::pair<std::string const, std::string> >::_Rb_tree_iterator(std::_Rb_tree_node<std::pair<std::string const, std::string> >*)
PUBLIC 45a5 0 _ZNSt16allocator_traitsISaISsEE12_S_constructISsIRKSsEEENSt9enable_ifIXsrNS1_18__construct_helperIT_IDpT0_EEE5valueEvE4typeERS0_PS7_DpOS8_
PUBLIC 45de 0 std::vector<std::string, std::allocator<std::string> >::_M_check_len(unsigned long, char const*) const
PUBLIC 46a8 0 std::_Vector_base<std::string, std::allocator<std::string> >::_M_allocate(unsigned long)
PUBLIC 46e0 0 std::vector<std::string, std::allocator<std::string> >::size() const
PUBLIC 4706 0 std::string* std::__uninitialized_move_if_noexcept_a<std::string*, std::string*, std::allocator<std::string> >(std::string*, std::string*, std::string*, std::allocator<std::string>&)
PUBLIC 4754 0 void std::allocator_traits<std::allocator<std::string> >::destroy<std::string>(std::allocator<std::string>&, std::string*)
PUBLIC 477a 0 std::_Vector_base<std::string, std::allocator<std::string> >::_M_deallocate(std::string*, unsigned long)
PUBLIC 47ae 0 std::_Vector_base<std::string, std::allocator<std::string> >::_Vector_impl::_Vector_impl()
PUBLIC 47ec 0 std::allocator<std::string>::~allocator()
PUBLIC 4806 0 void std::_Destroy<std::string*>(std::string*, std::string*)
PUBLIC 482c 0 std::allocator<std::_Rb_tree_node<std::pair<std::string const, std::string> > >::allocator()
PUBLIC 4846 0 std::_Rb_tree<std::string, std::pair<std::string const, std::string>, std::_Select1st<std::pair<std::string const, std::string> >, std::less<std::string>, std::allocator<std::pair<std::string const, std::string> > >::_Rb_tree_impl<std::less<std::string>, true>::_M_initialize()
PUBLIC 4888 0 std::_Rb_tree<std::string, std::pair<std::string const, std::string>, std::_Select1st<std::pair<std::string const, std::string> >, std::less<std::string>, std::allocator<std::pair<std::string const, std::string> > >::_M_get_Node_allocator()
PUBLIC 4896 0 std::pair<std::string const, std::string>::~pair()
PUBLIC 48c0 0 std::_Rb_tree_node<std::pair<std::string const, std::string> >::~_Rb_tree_node()
PUBLIC 48de 0 void __gnu_cxx::new_allocator<std::_Rb_tree_node<std::pair<std::string const, std::string> > >::destroy<std::_Rb_tree_node<std::pair<std::string const, std::string> > >(std::_Rb_tree_node<std::pair<std::string const, std::string> >*)
PUBLIC 48fc 0 std::_Rb_tree<std::string, std::pair<std::string const, std::string>, std::_Select1st<std::pair<std::string const, std::string> >, std::less<std::string>, std::allocator<std::pair<std::string const, std::string> > >::_M_put_node(std::_Rb_tree_node<std::pair<std::string const, std::string> >*)
PUBLIC 4926 0 std::_Rb_tree<std::string, std::pair<std::string const, std::string>, std::_Select1st<std::pair<std::string const, std::string> >, std::less<std::string>, std::allocator<std::pair<std::string const, std::string> > >::_M_end()
PUBLIC 4938 0 std::_Rb_tree<std::string, std::pair<std::string const, std::string>, std::_Select1st<std::pair<std::string const, std::string> >, std::less<std::string>, std::allocator<std::pair<std::string const, std::string> > >::_M_lower_bound(std::_Rb_tree_node<std::pair<std::string const, std::string> >*, std::_Rb_tree_node<std::pair<std::string const, std::string> >*, std::string const&)
PUBLIC 49c6 0 std::_Rb_tree<std::string, std::pair<std::string const, std::string>, std::_Select1st<std::pair<std::string const, std::string> >, std::less<std::string>, std::allocator<std::pair<std::string const, std::string> > >::_M_get_node()
PUBLIC 49ea 0 _ZNSt16allocator_traitsISaISt13_Rb_tree_nodeISt4pairIKSsSsEEEE9constructIS4_IRKSt21piecewise_construct_tSt5tupleIIOSsEESB_IIEEEEEDTcl12_S_constructfp_fp0_spcl7forwardIT0_Efp1_EEERS5_PT_DpOSF_
PUBLIC 4a56 0 std::_Rb_tree_const_iterator<std::pair<std::string const, std::string> >::_M_const_cast() const
PUBLIC 4a7e 0 std::_Rb_tree<std::string, std::pair<std::string const, std::string>, std::_Select1st<std::pair<std::string const, std::string> >, std::less<std::string>, std::allocator<std::pair<std::string const, std::string> > >::_M_rightmost()
PUBLIC 4a90 0 std::_Rb_tree<std::string, std::pair<std::string const, std::string>, std::_Select1st<std::pair<std::string const, std::string> >, std::less<std::string>, std::allocator<std::pair<std::string const, std::string> > >::_S_key(std::_Rb_tree_node_base const*)
PUBLIC 4abc 0 std::_Rb_tree<std::string, std::pair<std::string const, std::string>, std::_Select1st<std::pair<std::string const, std::string> >, std::less<std::string>, std::allocator<std::pair<std::string const, std::string> > >::size() const
PUBLIC 4ace 0 std::_Rb_tree_node<std::pair<std::string const, std::string> >*& std::forward<std::_Rb_tree_node<std::pair<std::string const, std::string> >*&>(std::remove_reference<std::_Rb_tree_node<std::pair<std::string const, std::string> >*&>::type&)
PUBLIC 4adc 0 std::pair<std::_Rb_tree_node_base*, std::_Rb_tree_node_base*>::pair<std::_Rb_tree_node<std::pair<std::string const, std::string> >*&, std::_Rb_tree_node<std::pair<std::string const, std::string> >*&, void>(std::_Rb_tree_node<std::pair<std::string const, std::string> >*&, std::_Rb_tree_node<std::pair<std::string const, std::string> >*&)
PUBLIC 4b20 0 std::_Rb_tree<std::string, std::pair<std::string const, std::string>, std::_Select1st<std::pair<std::string const, std::string> >, std::less<std::string>, std::allocator<std::pair<std::string const, std::string> > >::_M_get_insert_unique_pos(std::string const&)
PUBLIC 4c8e 0 std::_Rb_tree<std::string, std::pair<std::string const, std::string>, std::_Select1st<std::pair<std::string const, std::string> >, std::less<std::string>, std::allocator<std::pair<std::string const, std::string> > >::_M_leftmost()
PUBLIC 4ca0 0 std::_Rb_tree_iterator<std::pair<std::string const, std::string> >::operator--()
PUBLIC 4cc8 0 std::_Rb_tree_iterator<std::pair<std::string const, std::string> >::operator++()
PUBLIC 4cf0 0 std::_Rb_tree<std::string, std::pair<std::string const, std::string>, std::_Select1st<std::pair<std::string const, std::string> >, std::less<std::string>, std::allocator<std::pair<std::string const, std::string> > >::_S_value(std::_Rb_tree_node<std::pair<std::string const, std::string> > const*)
PUBLIC 4d02 0 std::_Select1st<std::pair<std::string const, std::string> >::operator()(std::pair<std::string const, std::string> const&) const
PUBLIC 4d14 0 _ZN9__gnu_cxx13new_allocatorISsE9constructISsIRKSsEEEvPT_DpOT0_
PUBLIC 4d88 0 std::vector<std::string, std::allocator<std::string> >::max_size() const
PUBLIC 4daa 0 unsigned long const& std::max<unsigned long>(unsigned long const&, unsigned long const&)
PUBLIC 4dd6 0 __gnu_cxx::new_allocator<std::string>::allocate(unsigned long, void const*)
PUBLIC 4e18 0 std::move_iterator<std::string*> std::__make_move_if_noexcept_iterator<std::string*, std::move_iterator<std::string*> >(std::string*)
PUBLIC 4e3d 0 std::string* std::__uninitialized_copy_a<std::move_iterator<std::string*>, std::string*, std::string>(std::move_iterator<std::string*>, std::move_iterator<std::string*>, std::string*, std::allocator<std::string>&)
PUBLIC 4e6e 0 std::enable_if<std::allocator_traits<std::allocator<std::string> >::__destroy_helper<std::string>::value, void>::type std::allocator_traits<std::allocator<std::string> >::_S_destroy<std::string>(std::allocator<std::string>&, std::string*)
PUBLIC 4e94 0 __gnu_cxx::new_allocator<std::string>::deallocate(std::string*, unsigned long)
PUBLIC 4eb6 0 std::allocator<std::string>::allocator()
PUBLIC 4ed0 0 __gnu_cxx::new_allocator<std::string>::~new_allocator()
PUBLIC 4eda 0 void std::_Destroy_aux<false>::__destroy<std::string*>(std::string*, std::string*)
PUBLIC 4f12 0 __gnu_cxx::new_allocator<std::_Rb_tree_node<std::pair<std::string const, std::string> > >::new_allocator()
PUBLIC 4f1c 0 __gnu_cxx::new_allocator<std::_Rb_tree_node<std::pair<std::string const, std::string> > >::deallocate(std::_Rb_tree_node<std::pair<std::string const, std::string> >*, unsigned long)
PUBLIC 4f3e 0 __gnu_cxx::new_allocator<std::_Rb_tree_node<std::pair<std::string const, std::string> > >::allocate(unsigned long, void const*)
PUBLIC 4f89 0 std::enable_if<std::allocator_traits<std::allocator<std::_Rb_tree_node<std::pair<std::string const, std::string> > > >::__construct_helper<std::_Rb_tree_node<std::pair<std::string const, std::string> >, std::piecewise_construct_t const&, std::tuple<std::string&&>, std::tuple<> >::value, void>::type std::allocator_traits<std::allocator<std::_Rb_tree_node<std::pair<std::string const, std::string> > > >::_S_construct<std::_Rb_tree_node<std::pair<std::string const, std::string> >, std::piecewise_construct_t const&, std::tuple<std::string&&>, std::tuple<> >(std::allocator<std::_Rb_tree_node<std::pair<std::string const, std::string> > >&, std::_Rb_tree_node<std::pair<std::string const, std::string> >*, std::piecewise_construct_t const&, std::tuple<std::string&&>&&, std::tuple<>&&)
PUBLIC 4ff4 0 std::_Rb_tree<std::string, std::pair<std::string const, std::string>, std::_Select1st<std::pair<std::string const, std::string> >, std::less<std::string>, std::allocator<std::pair<std::string const, std::string> > >::_S_value(std::_Rb_tree_node_base const*)
PUBLIC 5006 0 std::_Rb_tree<std::string, std::pair<std::string const, std::string>, std::_Select1st<std::pair<std::string const, std::string> >, std::less<std::string>, std::allocator<std::pair<std::string const, std::string> > >::begin()
PUBLIC 502f 0 std::allocator_traits<std::allocator<std::string> >::max_size(std::allocator<std::string> const&)
PUBLIC 504a 0 std::_Vector_base<std::string, std::allocator<std::string> >::_M_get_Tp_allocator() const
PUBLIC 5058 0 __gnu_cxx::new_allocator<std::string>::max_size() const
PUBLIC 506c 0 std::move_iterator<std::string*>::move_iterator(std::string*)
PUBLIC 5085 0 std::string* std::uninitialized_copy<std::move_iterator<std::string*>, std::string*>(std::move_iterator<std::string*>, std::move_iterator<std::string*>, std::string*)
PUBLIC 50b2 0 void __gnu_cxx::new_allocator<std::string>::destroy<std::string>(std::string*)
PUBLIC 50d0 0 __gnu_cxx::new_allocator<std::string>::new_allocator()
PUBLIC 50da 0 std::string* std::__addressof<std::string>(std::string&)
PUBLIC 50e8 0 void std::_Destroy<std::string>(std::string*)
PUBLIC 5102 0 __gnu_cxx::new_allocator<std::_Rb_tree_node<std::pair<std::string const, std::string> > >::max_size() const
PUBLIC 5116 0 _ZN9__gnu_cxx13new_allocatorISt13_Rb_tree_nodeISt4pairIKSsSsEEE9constructIS5_IRKSt21piecewise_construct_tSt5tupleIIOSsEESB_IIEEEEEvPT_DpOT0_
PUBLIC 51be 0 std::enable_if<std::allocator_traits<std::allocator<std::string> >::__maxsize_helper<std::allocator<std::string> const>::value, unsigned long>::type std::allocator_traits<std::allocator<std::string> >::_S_max_size<std::allocator<std::string> const>(std::allocator<std::string> const&)
PUBLIC 51d8 0 std::string* std::__uninitialized_copy<false>::__uninit_copy<std::move_iterator<std::string*>, std::string*>(std::move_iterator<std::string*>, std::move_iterator<std::string*>, std::string*)
PUBLIC 5286 0 std::_Rb_tree_node<std::pair<std::string const, std::string> >::_Rb_tree_node<std::piecewise_construct_t const&, std::tuple<std::string&&>, std::tuple<> >(std::piecewise_construct_t const&, std::tuple<std::string&&>&&, std::tuple<>&&)
PUBLIC 532d 0 bool std::operator!=<std::string*>(std::move_iterator<std::string*> const&, std::move_iterator<std::string*> const&)
PUBLIC 5356 0 std::move_iterator<std::string*>::operator++()
PUBLIC 5376 0 std::move_iterator<std::string*>::operator*() const
PUBLIC 5393 0 void std::_Construct<std::string, std::string>(std::string*, std::string&&)
PUBLIC 53dc 0 std::pair<std::string const, std::string>::pair<std::string&&>(std::piecewise_construct_t, std::tuple<std::string&&>, std::tuple<>)
PUBLIC 540e 0 bool std::operator==<std::string*>(std::move_iterator<std::string*> const&, std::move_iterator<std::string*> const&)
PUBLIC 5447 0 _ZSt12__get_helperILm0EOSsIEENSt9__add_refIT0_E4typeERSt11_Tuple_implIXT_EIS2_DpT1_EE
PUBLIC 5461 0 std::__add_ref<std::tuple_element<0ul, std::tuple<std::string&&> >::type>::type std::get<0ul, std::string&&>(std::tuple<std::string&&>&)
PUBLIC 547c 0 std::pair<std::string const, std::string>::pair<std::string&&, 0ul>(std::tuple<std::string&&>&, std::tuple<>&, std::_Index_tuple<0ul>, std::_Index_tuple<>)
PUBLIC 54ea 0 std::move_iterator<std::string*>::base() const
PUBLIC 5500 0 google_breakpad::ExceptionHandler::InstallHandlersLocked()
PUBLIC 5600 0 google_breakpad::ExceptionHandler::RestoreHandlersLocked()
PUBLIC 5680 0 google_breakpad::ExceptionHandler::~ExceptionHandler()
PUBLIC 59f0 0 google_breakpad::ExceptionHandler::SendContinueSignalToChild()
PUBLIC 5ac0 0 google_breakpad::ExceptionHandler::GenerateDump(google_breakpad::ExceptionHandler::CrashContext*)
PUBLIC 5f50 0 google_breakpad::ExceptionHandler::HandleSignal(int, siginfo_t*, void*)
PUBLIC 6120 0 google_breakpad::ExceptionHandler::SignalHandler(int, siginfo_t*, void*)
PUBLIC 62f0 0 google_breakpad::ExceptionHandler::SimulateSignalDelivery(int)
PUBLIC 6350 0 google_breakpad::ExceptionHandler::WaitForContinueSignal()
PUBLIC 6420 0 google_breakpad::ExceptionHandler::DoDump(int, void const*, unsigned long)
PUBLIC 64f0 0 google_breakpad::ExceptionHandler::ThreadEntry(void*)
PUBLIC 6580 0 google_breakpad::ExceptionHandler::WriteMinidump()
PUBLIC 66f0 0 google_breakpad::ExceptionHandler::AddMappingInfo(std::string const&, unsigned char const*, unsigned long, unsigned long, unsigned long)
PUBLIC 67d0 0 google_breakpad::ExceptionHandler::RegisterAppMemory(void*, unsigned long)
PUBLIC 6840 0 google_breakpad::ExceptionHandler::UnregisterAppMemory(void*)
PUBLIC 6890 0 google_breakpad::ExceptionHandler::WriteMinidumpForChild(int, int, std::string const&, bool (*)(google_breakpad::MinidumpDescriptor const&, void*, bool), void*)
PUBLIC 6a50 0 google_breakpad::SetFirstChanceExceptionHandler(bool (*)(int, siginfo_t*, void*))
PUBLIC 6a60 0 google_breakpad::ExceptionHandler::ExceptionHandler(google_breakpad::MinidumpDescriptor const&, bool (*)(void*), bool (*)(google_breakpad::MinidumpDescriptor const&, void*, bool), void*, bool, int)
PUBLIC 6dc0 0 google_breakpad::ExceptionHandler::WriteMinidump(std::string const&, bool (*)(google_breakpad::MinidumpDescriptor const&, void*, bool), void*)
PUBLIC 6f90 0 void std::vector<google_breakpad::ExceptionHandler*, std::allocator<google_breakpad::ExceptionHandler*> >::_M_emplace_back_aux<google_breakpad::ExceptionHandler* const&>(google_breakpad::ExceptionHandler* const&)
PUBLIC 7090 0 google_breakpad::MinidumpDescriptor::MinidumpDescriptor(google_breakpad::MinidumpDescriptor const&)
PUBLIC 7140 0 google_breakpad::MinidumpDescriptor::UpdatePath()
PUBLIC 7420 0 google_breakpad::MinidumpDescriptor::operator=(google_breakpad::MinidumpDescriptor const&)
PUBLIC 74f0 0 logger::write(char const*, unsigned long)
PUBLIC 7530 0 google_breakpad::WriteMicrodump(int, void const*, unsigned long, std::list<google_breakpad::MappingEntry, std::allocator<google_breakpad::MappingEntry> > const&, bool, unsigned long, bool, google_breakpad::MicrodumpExtraInfo const&)
PUBLIC 9260 0 void std::vector<unsigned char, google_breakpad::PageStdAllocator<unsigned char> >::_M_range_insert<unsigned char const*>(__gnu_cxx::__normal_iterator<unsigned char*, std::vector<unsigned char, google_breakpad::PageStdAllocator<unsigned char> > >, unsigned char const*, unsigned char const*, std::forward_iterator_tag)
PUBLIC 9650 0 google_breakpad::LinuxDumper::LateInit()
PUBLIC 9660 0 google_breakpad::LinuxDumper::~LinuxDumper()
PUBLIC 96d0 0 google_breakpad::LinuxDumper::~LinuxDumper()
PUBLIC 96f0 0 google_breakpad::LinuxDumper::SetCrashInfoFromSigInfo(siginfo_t const&)
PUBLIC 9710 0 google_breakpad::LinuxDumper::GetCrashSignalString() const
PUBLIC 9910 0 google_breakpad::LinuxDumper::GetMappingAbsolutePath(google_breakpad::MappingInfo const&, char*) const
PUBLIC 9960 0 google_breakpad::(anonymous namespace)::ElfFileSoName(google_breakpad::LinuxDumper const&, google_breakpad::MappingInfo const&, char*, unsigned long)
PUBLIC 9af0 0 google_breakpad::LinuxDumper::GetMappingEffectiveNameAndPath(google_breakpad::MappingInfo const&, char*, unsigned long, char*, unsigned long)
PUBLIC 9be0 0 google_breakpad::LinuxDumper::ReadAuxv()
PUBLIC 9d20 0 google_breakpad::LinuxDumper::Init()
PUBLIC 9d60 0 google_breakpad::LinuxDumper::StackHasPointerToMapping(unsigned char const*, unsigned long, unsigned long, google_breakpad::MappingInfo const&)
PUBLIC 9db0 0 google_breakpad::LinuxDumper::FindMapping(void const*) const
PUBLIC 9e00 0 google_breakpad::LinuxDumper::GetStackInfo(void const**, unsigned long*, unsigned long)
PUBLIC 9e80 0 google_breakpad::LinuxDumper::FindMappingNoBias(unsigned long) const
PUBLIC 9ed0 0 google_breakpad::LinuxDumper::SanitizeStackCopy(unsigned char*, unsigned long, unsigned long, unsigned long)
PUBLIC a0d0 0 google_breakpad::LinuxDumper::HandleDeletedFileInMapping(char*) const
PUBLIC a300 0 google_breakpad::LinuxDumper::ElfFileIdentifierForMapping(google_breakpad::MappingInfo const&, bool, unsigned int, google_breakpad::wasteful_vector<unsigned char>&)
PUBLIC a630 0 google_breakpad::LinuxDumper::LinuxDumper(int, char const*)
PUBLIC ac40 0 google_breakpad::LinuxDumper::EnumerateMappings()
PUBLIC b440 0 std::vector<unsigned long, google_breakpad::PageStdAllocator<unsigned long> >::_M_default_append(unsigned long)
PUBLIC b6f0 0 void std::vector<google_breakpad::MappingInfo*, google_breakpad::PageStdAllocator<google_breakpad::MappingInfo*> >::_M_emplace_back_aux<google_breakpad::MappingInfo* const&>(google_breakpad::MappingInfo* const&)
PUBLIC b910 0 google_breakpad::LinuxPtraceDumper::IsPostMortem() const
PUBLIC b920 0 google_breakpad::LinuxPtraceDumper::CopyFromProcess(void*, int, void const*, unsigned long)
PUBLIC b9e0 0 google_breakpad::LinuxPtraceDumper::BuildProcPath(char*, int, char const*) const
PUBLIC bab0 0 google_breakpad::LinuxPtraceDumper::ThreadsResume()
PUBLIC bb70 0 google_breakpad::LinuxPtraceDumper::LinuxPtraceDumper(int)
PUBLIC bba0 0 google_breakpad::LinuxPtraceDumper::ReadRegisterSet(google_breakpad::ThreadInfo*, int)
PUBLIC bc80 0 google_breakpad::LinuxPtraceDumper::ReadRegisters(google_breakpad::ThreadInfo*, int)
PUBLIC bd50 0 google_breakpad::LinuxPtraceDumper::GetThreadInfoByIndex(unsigned long, google_breakpad::ThreadInfo*)
PUBLIC c240 0 google_breakpad::LinuxPtraceDumper::ThreadsSuspend()
PUBLIC c4a0 0 google_breakpad::LinuxPtraceDumper::EnumerateThreads()
PUBLIC c820 0 google_breakpad::LinuxPtraceDumper::~LinuxPtraceDumper()
PUBLIC c840 0 google_breakpad::LinuxPtraceDumper::~LinuxPtraceDumper()
PUBLIC c860 0 std::vector<int, google_breakpad::PageStdAllocator<int> >::_M_default_append(unsigned long)
PUBLIC cb10 0 void std::vector<int, google_breakpad::PageStdAllocator<int> >::_M_emplace_back_aux<int const&>(int const&)
PUBLIC cd30 0 (anonymous namespace)::MinidumpWriter::~MinidumpWriter()
PUBLIC cd70 0 (anonymous namespace)::MinidumpWriter::WriteThreadListStream(MDRawDirectory*)
PUBLIC dba0 0 (anonymous namespace)::MinidumpWriter::Dump()
PUBLIC fd90 0 (anonymous namespace)::WriteMinidumpImpl(char const*, int, long, int, void const*, unsigned long, std::list<google_breakpad::MappingEntry, std::allocator<google_breakpad::MappingEntry> > const&, std::list<google_breakpad::AppMemory, std::allocator<google_breakpad::AppMemory> > const&, bool, unsigned long, bool)
PUBLIC 102d0 0 google_breakpad::WriteMinidump(char const*, int, void const*, unsigned long, bool, unsigned long, bool)
PUBLIC 103d0 0 google_breakpad::WriteMinidump(int, int, void const*, unsigned long, bool, unsigned long, bool)
PUBLIC 104d0 0 google_breakpad::WriteMinidump(char const*, int, void const*, unsigned long, std::list<google_breakpad::MappingEntry, std::allocator<google_breakpad::MappingEntry> > const&, std::list<google_breakpad::AppMemory, std::allocator<google_breakpad::AppMemory> > const&, bool, unsigned long, bool)
PUBLIC 10520 0 google_breakpad::WriteMinidump(int, int, void const*, unsigned long, std::list<google_breakpad::MappingEntry, std::allocator<google_breakpad::MappingEntry> > const&, std::list<google_breakpad::AppMemory, std::allocator<google_breakpad::AppMemory> > const&, bool, unsigned long, bool)
PUBLIC 10570 0 google_breakpad::WriteMinidump(char const*, long, int, void const*, unsigned long, std::list<google_breakpad::MappingEntry, std::allocator<google_breakpad::MappingEntry> > const&, std::list<google_breakpad::AppMemory, std::allocator<google_breakpad::AppMemory> > const&, bool, unsigned long, bool)
PUBLIC 105c0 0 google_breakpad::WriteMinidump(int, long, int, void const*, unsigned long, std::list<google_breakpad::MappingEntry, std::allocator<google_breakpad::MappingEntry> > const&, std::list<google_breakpad::AppMemory, std::allocator<google_breakpad::AppMemory> > const&, bool, unsigned long, bool)
PUBLIC 10610 0 google_breakpad::WriteMinidump(char const*, int, int)
PUBLIC 10ca0 0 google_breakpad::WriteMinidump(char const*, std::list<google_breakpad::MappingEntry, std::allocator<google_breakpad::MappingEntry> > const&, std::list<google_breakpad::AppMemory, std::allocator<google_breakpad::AppMemory> > const&, google_breakpad::LinuxDumper*)
PUBLIC 11100 0 google_breakpad::PageAllocator::Alloc(unsigned long)
PUBLIC 11250 0 google_breakpad::TypedMDRVA<unsigned int>::~TypedMDRVA()
PUBLIC 11280 0 google_breakpad::TypedMDRVA<MDRawContextAMD64>::~TypedMDRVA()
PUBLIC 112b0 0 google_breakpad::TypedMDRVA<MDRawLinkMap64>::~TypedMDRVA()
PUBLIC 112e0 0 google_breakpad::TypedMDRVA<MDRawDebug64>::~TypedMDRVA()
PUBLIC 11310 0 void std::vector<MDMemoryDescriptor, google_breakpad::PageStdAllocator<MDMemoryDescriptor> >::_M_emplace_back_aux<MDMemoryDescriptor const&>(MDMemoryDescriptor const&)
PUBLIC 11550 0 std::vector<char, google_breakpad::PageStdAllocator<char> >::reserve(unsigned long)
PUBLIC 11730 0 std::vector<char, google_breakpad::PageStdAllocator<char> >::_M_default_append(unsigned long)
PUBLIC 11980 0 google_breakpad::MinidumpFileWriter::MinidumpFileWriter()
PUBLIC 119a0 0 google_breakpad::MinidumpFileWriter::Open(char const*)
PUBLIC 11a20 0 google_breakpad::MinidumpFileWriter::SetFile(int)
PUBLIC 11a50 0 google_breakpad::MinidumpFileWriter::Close()
PUBLIC 11ab0 0 google_breakpad::MinidumpFileWriter::~MinidumpFileWriter()
PUBLIC 11ad0 0 google_breakpad::MinidumpFileWriter::Allocate(unsigned long)
PUBLIC 11b90 0 google_breakpad::MinidumpFileWriter::Copy(unsigned int, void const*, long)
PUBLIC 11c90 0 google_breakpad::MinidumpFileWriter::CopyStringToMDString(char const*, unsigned int, google_breakpad::TypedMDRVA<MDString>*)
PUBLIC 11d50 0 google_breakpad::MinidumpFileWriter::CopyStringToMDString(wchar_t const*, unsigned int, google_breakpad::TypedMDRVA<MDString>*)
PUBLIC 11e10 0 google_breakpad::UntypedMDRVA::Allocate(unsigned long)
PUBLIC 11e60 0 google_breakpad::UntypedMDRVA::Copy(unsigned int, void const*, unsigned long)
PUBLIC 11ef0 0 google_breakpad::MinidumpFileWriter::WriteMemory(void const*, unsigned long, MDMemoryDescriptor*)
PUBLIC 11fc0 0 google_breakpad::MinidumpFileWriter::WriteString(wchar_t const*, unsigned int, MDLocationDescriptor*)
PUBLIC 11fd0 0 google_breakpad::MinidumpFileWriter::WriteString(char const*, unsigned int, MDLocationDescriptor*)
PUBLIC 11fe0 0 google_breakpad::TypedMDRVA<MDString>::~TypedMDRVA()
PUBLIC 12010 0 bool google_breakpad::MinidumpFileWriter::WriteStringCore<wchar_t>(wchar_t const*, unsigned int, MDLocationDescriptor*)
PUBLIC 121f0 0 bool google_breakpad::MinidumpFileWriter::WriteStringCore<char>(char const*, unsigned int, MDLocationDescriptor*)
PUBLIC 123d0 0 google_breakpad::UTF8ToUTF16Char(char const*, int, unsigned short*)
PUBLIC 12470 0 google_breakpad::UTF32ToUTF16Char(wchar_t, unsigned short*)
PUBLIC 124d0 0 google_breakpad::UTF16ToUTF8(std::vector<unsigned short, std::allocator<unsigned short> > const&, bool)
PUBLIC 12630 0 google_breakpad::UTF32ToUTF16(wchar_t const*, std::vector<unsigned short, std::allocator<unsigned short> >*)
PUBLIC 12710 0 google_breakpad::UTF8ToUTF16(char const*, std::vector<unsigned short, std::allocator<unsigned short> >*)
PUBLIC 127e0 0 std::vector<unsigned short, std::allocator<unsigned short> >::_M_fill_insert(__gnu_cxx::__normal_iterator<unsigned short*, std::vector<unsigned short, std::allocator<unsigned short> > >, unsigned long, unsigned short const&)
PUBLIC 12a70 0 std::vector<unsigned short, std::allocator<unsigned short> >::_M_default_append(unsigned long)
PUBLIC 12bd0 0 google_breakpad::IsValidElf(void const*)
PUBLIC 12bf0 0 google_breakpad::ElfClass(void const*)
PUBLIC 12c00 0 google_breakpad::FindElfSection(void const*, char const*, unsigned int, void const**, unsigned long*)
PUBLIC 13050 0 google_breakpad::FindElfSegments(void const*, unsigned int, google_breakpad::wasteful_vector<google_breakpad::ElfSegment>*)
PUBLIC 13300 0 void std::vector<google_breakpad::ElfSegment, google_breakpad::PageStdAllocator<google_breakpad::ElfSegment> >::_M_emplace_back_aux<google_breakpad::ElfSegment const&>(google_breakpad::ElfSegment const&)
PUBLIC 13550 0 google_breakpad::bytes_to_hex_string(unsigned char const*, unsigned long)
PUBLIC 13630 0 google_breakpad::FileID::FileID(char const*)
PUBLIC 13650 0 google_breakpad::FileID::ConvertIdentifierToUUIDString(google_breakpad::wasteful_vector<unsigned char> const&)
PUBLIC 13720 0 google_breakpad::FileID::ConvertIdentifierToString(google_breakpad::wasteful_vector<unsigned char> const&)
PUBLIC 13740 0 google_breakpad::ElfClassBuildIDNoteIdentifier(void const*, unsigned long, google_breakpad::wasteful_vector<unsigned char>&)
PUBLIC 137c0 0 google_breakpad::FileID::ElfFileIdentifierFromMappedFile(void const*, google_breakpad::wasteful_vector<unsigned char>&)
PUBLIC 13a70 0 google_breakpad::FileID::ElfFileIdentifier(google_breakpad::wasteful_vector<unsigned char>&)
PUBLIC 13ad0 0 std::vector<unsigned char, google_breakpad::PageStdAllocator<unsigned char> >::_M_default_append(unsigned long)
PUBLIC 13d20 0 CreateGUID(MDGUID*)
PUBLIC 13de0 0 GUIDToString(MDGUID const*, char*, int)
PUBLIC 13ea0 0 GUIDGenerator::InitOnceImpl()
PUBLIC 13ed0 0 my_strlen
PUBLIC 13ef0 0 my_strcmp
PUBLIC 13f30 0 my_strncmp
PUBLIC 13f90 0 my_strtoui
PUBLIC 13fe0 0 my_uint_len
PUBLIC 14020 0 my_uitos
PUBLIC 14060 0 my_strchr
PUBLIC 14090 0 my_strrchr
PUBLIC 140c0 0 my_memchr
PUBLIC 140f0 0 my_read_hex_ptr
PUBLIC 14160 0 my_read_decimal_ptr
PUBLIC 141a0 0 my_memset
PUBLIC 141c0 0 my_strlcpy
PUBLIC 14200 0 my_strlcat
PUBLIC 14250 0 my_isspace
PUBLIC 142c0 0 google_breakpad::MemoryMappedFile::MemoryMappedFile()
PUBLIC 142d0 0 google_breakpad::MemoryMappedFile::Unmap()
PUBLIC 14320 0 google_breakpad::MemoryMappedFile::~MemoryMappedFile()
PUBLIC 14330 0 google_breakpad::MemoryMappedFile::Map(char const*, unsigned long)
PUBLIC 144b0 0 google_breakpad::MemoryMappedFile::MemoryMappedFile(char const*, unsigned long)
PUBLIC 144d0 0 google_breakpad::SafeReadLink(char const*, char*, unsigned long)
PUBLIC 14510 0 google_breakpad::(anonymous namespace)::CrashGenerationClientImpl::~CrashGenerationClientImpl()
PUBLIC 14520 0 google_breakpad::(anonymous namespace)::CrashGenerationClientImpl::~CrashGenerationClientImpl()
PUBLIC 14540 0 google_breakpad::(anonymous namespace)::CrashGenerationClientImpl::RequestDump(void const*, unsigned long)
PUBLIC 14750 0 google_breakpad::CrashGenerationClient::TryCreate(int)
PUBLIC 14780 0 google_breakpad::CrashGenerationClient::~CrashGenerationClient()
PUBLIC 14790 0 google_breakpad::CrashGenerationClient::~CrashGenerationClient()
PUBLIC 147b0 0 google_breakpad::ThreadInfo::GetInstructionPointer() const
PUBLIC 147c0 0 google_breakpad::ThreadInfo::FillCPUContext(MDRawContextAMD64*) const
PUBLIC 14b50 0 google_breakpad::ThreadInfo::GetGeneralPurposeRegisters(void**, unsigned long*)
PUBLIC 14ba0 0 google_breakpad::ThreadInfo::GetFloatingPointRegisters(void**, unsigned long*)
PUBLIC 14bf0 0 google_breakpad::UContextReader::GetStackPointer(ucontext const*)
PUBLIC 14c00 0 google_breakpad::UContextReader::GetInstructionPointer(ucontext const*)
PUBLIC 14c10 0 google_breakpad::UContextReader::FillCPUContext(MDRawContextAMD64*, ucontext const*, _libc_fpstate const*)
PUBLIC 14f00 0 isLegalUTF8
PUBLIC 14fe0 0 ConvertUTF32toUTF16
PUBLIC 150f0 0 ConvertUTF16toUTF32
PUBLIC 151e0 0 ConvertUTF16toUTF8
PUBLIC 153e0 0 isLegalUTF8Sequence
PUBLIC 15410 0 ConvertUTF8toUTF16
PUBLIC 15690 0 ConvertUTF32toUTF8
PUBLIC 15860 0 ConvertUTF8toUTF32
PUBLIC 15b08 0 (anonymous namespace)::WriteCallback(void*, unsigned long, unsigned long, void*)
PUBLIC 15b60 0 google_breakpad::HTTPUpload::SendRequest(std::string const&, std::map<std::string, std::string, std::less<std::string>, std::allocator<std::pair<std::string const, std::string> > > const&, std::map<std::string, std::string, std::less<std::string>, std::allocator<std::pair<std::string const, std::string> > > const&, std::string const&, std::string const&, std::string const&, std::string*, long*, std::string*)
PUBLIC 162ca 0 google_breakpad::HTTPUpload::CheckCurlLib(void*)
PUBLIC 16318 0 google_breakpad::HTTPUpload::CheckParameters(std::map<std::string, std::string, std::less<std::string>, std::allocator<std::pair<std::string const, std::string> > > const&)
PUBLIC 16408 0 std::map<std::string, std::string, std::less<std::string>, std::allocator<std::pair<std::string const, std::string> > >::begin() const
PUBLIC 16422 0 std::map<std::string, std::string, std::less<std::string>, std::allocator<std::pair<std::string const, std::string> > >::end() const
PUBLIC 1643c 0 std::_Rb_tree_const_iterator<std::pair<std::string const, std::string> >::operator!=(std::_Rb_tree_const_iterator<std::pair<std::string const, std::string> > const&) const
PUBLIC 1645e 0 std::_Rb_tree_const_iterator<std::pair<std::string const, std::string> >::operator++()
PUBLIC 16486 0 std::_Rb_tree_const_iterator<std::pair<std::string const, std::string> >::operator->() const
PUBLIC 164a8 0 std::_Rb_tree<std::string, std::pair<std::string const, std::string>, std::_Select1st<std::pair<std::string const, std::string> >, std::less<std::string>, std::allocator<std::pair<std::string const, std::string> > >::begin() const
PUBLIC 164d2 0 std::_Rb_tree<std::string, std::pair<std::string const, std::string>, std::_Select1st<std::pair<std::string const, std::string> >, std::less<std::string>, std::allocator<std::pair<std::string const, std::string> > >::end() const
PUBLIC 164fb 0 std::pair<std::string const, std::string> const* std::__addressof<std::pair<std::string const, std::string> const>(std::pair<std::string const, std::string> const&)
PUBLIC 1650a 0 std::_Rb_tree_const_iterator<std::pair<std::string const, std::string> >::_Rb_tree_const_iterator(std::_Rb_tree_node<std::pair<std::string const, std::string> > const*)
PUBLIC 16530 0 __libc_csu_init
PUBLIC 165a0 0 __libc_csu_fini
PUBLIC 165a4 0 _fini
STACK CFI INIT 2902 2a .cfa: $rsp 8 + .ra: .cfa -8 + ^
STACK CFI INIT 1fe0 610 .cfa: $rsp 16 + .ra: .cfa -8 + ^
STACK CFI 1fe6 .cfa: $rsp 24 +
STACK CFI INIT 31d4 12 .cfa: $rsp 8 + .ra: .cfa -8 + ^
STACK CFI 31d5 $rbp: .cfa -16 + ^ .cfa: $rsp 16 +
STACK CFI 31d8 .cfa: $rbp 16 +
STACK CFI 31e5 .cfa: $rsp 8 +
STACK CFI INIT 31e6 e .cfa: $rsp 8 + .ra: .cfa -8 + ^
STACK CFI 31e7 $rbp: .cfa -16 + ^ .cfa: $rsp 16 +
STACK CFI 31ea .cfa: $rbp 16 +
STACK CFI 31f3 .cfa: $rsp 8 +
STACK CFI INIT 31f4 39 .cfa: $rsp 8 + .ra: .cfa -8 + ^
STACK CFI 31f5 $rbp: .cfa -16 + ^ .cfa: $rsp 16 +
STACK CFI 31f8 .cfa: $rbp 16 +
STACK CFI 322c .cfa: $rsp 8 +
STACK CFI INIT 322e df .cfa: $rsp 8 + .ra: .cfa -8 + ^
STACK CFI 322f $rbp: .cfa -16 + ^ .cfa: $rsp 16 +
STACK CFI 3232 .cfa: $rbp 16 +
STACK CFI 3237 $rbx: .cfa -24 + ^
STACK CFI 330c .cfa: $rsp 8 +
STACK CFI INIT 330e 12 .cfa: $rsp 8 + .ra: .cfa -8 + ^
STACK CFI 330f $rbp: .cfa -16 + ^ .cfa: $rsp 16 +
STACK CFI 3312 .cfa: $rbp 16 +
STACK CFI 331f .cfa: $rsp 8 +
STACK CFI INIT 29ed 4a .cfa: $rsp 8 + .ra: .cfa -8 + ^
STACK CFI 29ee $rbp: .cfa -16 + ^ .cfa: $rsp 16 +
STACK CFI 29f1 .cfa: $rbp 16 +
STACK CFI 29f6 $rbx: .cfa -24 + ^
STACK CFI 2a36 .cfa: $rsp 8 +
STACK CFI INIT 2a37 16 .cfa: $rsp 8 + .ra: .cfa -8 + ^
STACK CFI 2a38 $rbp: .cfa -16 + ^ .cfa: $rsp 16 +
STACK CFI 2a3b .cfa: $rbp 16 +
STACK CFI 2a4c .cfa: $rsp 8 +
STACK CFI INIT 2a4d 9 .cfa: $rsp 8 + .ra: .cfa -8 + ^
STACK CFI 2a4e $rbp: .cfa -16 + ^ .cfa: $rsp 16 +
STACK CFI 2a51 .cfa: $rbp 16 +
STACK CFI INIT 3320 1a .cfa: $rsp 8 + .ra: .cfa -8 + ^
STACK CFI 3321 $rbp: .cfa -16 + ^ .cfa: $rsp 16 +
STACK CFI 3324 .cfa: $rbp 16 +
STACK CFI 3339 .cfa: $rsp 8 +
STACK CFI INIT 2a56 2fc .cfa: $rsp 8 + .ra: .cfa -8 + ^
STACK CFI 2a57 $rbp: .cfa -16 + ^ .cfa: $rsp 16 +
STACK CFI 2a5a .cfa: $rbp 16 +
STACK CFI 2a62 $rbx: .cfa -24 + ^
STACK CFI 2d51 .cfa: $rsp 8 +
STACK CFI INIT 2d52 107 .cfa: $rsp 8 + .ra: .cfa -8 + ^
STACK CFI 2d53 $rbp: .cfa -16 + ^ .cfa: $rsp 16 +
STACK CFI 2d56 .cfa: $rbp 16 +
STACK CFI 2d5b $rbx: .cfa -24 + ^
STACK CFI 2e58 .cfa: $rsp 8 +
STACK CFI INIT 2e59 170 .cfa: $rsp 8 + .ra: .cfa -8 + ^
STACK CFI 2e5a $rbp: .cfa -16 + ^ .cfa: $rsp 16 +
STACK CFI 2e5d .cfa: $rbp 16 +
STACK CFI 2e62 $rbx: .cfa -24 + ^
STACK CFI 2fc8 .cfa: $rsp 8 +
STACK CFI INIT 333a 2e .cfa: $rsp 8 + .ra: .cfa -8 + ^
STACK CFI 333b $rbp: .cfa -16 + ^ .cfa: $rsp 16 +
STACK CFI 333e .cfa: $rbp 16 +
STACK CFI 3367 .cfa: $rsp 8 +
STACK CFI INIT 2fc9 1b9 .cfa: $rsp 8 + .ra: .cfa -8 + ^
STACK CFI 2fca $rbp: .cfa -16 + ^ .cfa: $rsp 16 +
STACK CFI 2fcd .cfa: $rbp 16 +
STACK CFI 2fd5 $rbx: .cfa -24 + ^
STACK CFI 3181 .cfa: $rsp 8 +
STACK CFI INIT 3368 1a .cfa: $rsp 8 + .ra: .cfa -8 + ^
STACK CFI 3369 $rbp: .cfa -16 + ^ .cfa: $rsp 16 +
STACK CFI 336c .cfa: $rbp 16 +
STACK CFI 3381 .cfa: $rsp 8 +
STACK CFI INIT 3382 1a .cfa: $rsp 8 + .ra: .cfa -8 + ^
STACK CFI 3383 $rbp: .cfa -16 + ^ .cfa: $rsp 16 +
STACK CFI 3386 .cfa: $rbp 16 +
STACK CFI 339b .cfa: $rsp 8 +
STACK CFI INIT 339c 38 .cfa: $rsp 8 + .ra: .cfa -8 + ^
STACK CFI 339d $rbp: .cfa -16 + ^ .cfa: $rsp 16 +
STACK CFI 33a0 .cfa: $rbp 16 +
STACK CFI 33d3 .cfa: $rsp 8 +
STACK CFI INIT 33d4 e .cfa: $rsp 8 + .ra: .cfa -8 + ^
STACK CFI 33d5 $rbp: .cfa -16 + ^ .cfa: $rsp 16 +
STACK CFI 33d8 .cfa: $rbp 16 +
STACK CFI 33e1 .cfa: $rsp 8 +
STACK CFI INIT 33e2 130 .cfa: $rsp 8 + .ra: .cfa -8 + ^
STACK CFI 33e3 $rbp: .cfa -16 + ^ .cfa: $rsp 16 +
STACK CFI 33e6 .cfa: $rbp 16 +
STACK CFI 33ef $r12: .cfa -32 + ^ $r13: .cfa -24 + ^ $rbx: .cfa -40 + ^
STACK CFI 3511 .cfa: $rsp 8 +
STACK CFI INIT 3512 e .cfa: $rsp 8 + .ra: .cfa -8 + ^
STACK CFI 3513 $rbp: .cfa -16 + ^ .cfa: $rsp 16 +
STACK CFI 3516 .cfa: $rbp 16 +
STACK CFI 351f .cfa: $rsp 8 +
STACK CFI INIT 3520 6b .cfa: $rsp 8 + .ra: .cfa -8 + ^
STACK CFI 3521 $rbp: .cfa -16 + ^ .cfa: $rsp 16 +
STACK CFI 3524 .cfa: $rbp 16 +
STACK CFI 358a .cfa: $rsp 8 +
STACK CFI INIT 358c 25 .cfa: $rsp 8 + .ra: .cfa -8 + ^
STACK CFI 358d $rbp: .cfa -16 + ^ .cfa: $rsp 16 +
STACK CFI 3590 .cfa: $rbp 16 +
STACK CFI 35b0 .cfa: $rsp 8 +
STACK CFI INIT 35b2 29 .cfa: $rsp 8 + .ra: .cfa -8 + ^
STACK CFI 35b3 $rbp: .cfa -16 + ^ .cfa: $rsp 16 +
STACK CFI 35b6 .cfa: $rbp 16 +
STACK CFI 35da .cfa: $rsp 8 +
STACK CFI INIT 35db 3c .cfa: $rsp 8 + .ra: .cfa -8 + ^
STACK CFI 35dc $rbp: .cfa -16 + ^ .cfa: $rsp 16 +
STACK CFI 35df .cfa: $rbp 16 +
STACK CFI 35e4 $rbx: .cfa -24 + ^
STACK CFI 3616 .cfa: $rsp 8 +
STACK CFI INIT 3618 20 .cfa: $rsp 8 + .ra: .cfa -8 + ^
STACK CFI 3619 $rbp: .cfa -16 + ^ .cfa: $rsp 16 +
STACK CFI 361c .cfa: $rbp 16 +
STACK CFI 3637 .cfa: $rsp 8 +
STACK CFI INIT 3638 11 .cfa: $rsp 8 + .ra: .cfa -8 + ^
STACK CFI 3639 $rbp: .cfa -16 + ^ .cfa: $rsp 16 +
STACK CFI 363c .cfa: $rbp 16 +
STACK CFI 3648 .cfa: $rsp 8 +
STACK CFI INIT 364a 1a .cfa: $rsp 8 + .ra: .cfa -8 + ^
STACK CFI 364b $rbp: .cfa -16 + ^ .cfa: $rsp 16 +
STACK CFI 364e .cfa: $rbp 16 +
STACK CFI 3663 .cfa: $rsp 8 +
STACK CFI INIT 3664 43 .cfa: $rsp 8 + .ra: .cfa -8 + ^
STACK CFI 3665 $rbp: .cfa -16 + ^ .cfa: $rsp 16 +
STACK CFI 3668 .cfa: $rbp 16 +
STACK CFI 36a6 .cfa: $rsp 8 +
STACK CFI INIT 36a8 1a .cfa: $rsp 8 + .ra: .cfa -8 + ^
STACK CFI 36a9 $rbp: .cfa -16 + ^ .cfa: $rsp 16 +
STACK CFI 36ac .cfa: $rbp 16 +
STACK CFI 36c1 .cfa: $rsp 8 +
STACK CFI INIT 36c2 1a .cfa: $rsp 8 + .ra: .cfa -8 + ^
STACK CFI 36c3 $rbp: .cfa -16 + ^ .cfa: $rsp 16 +
STACK CFI 36c6 .cfa: $rbp 16 +
STACK CFI 36db .cfa: $rsp 8 +
STACK CFI INIT 36dc 64 .cfa: $rsp 8 + .ra: .cfa -8 + ^
STACK CFI 36dd $rbp: .cfa -16 + ^ .cfa: $rsp 16 +
STACK CFI 36e0 .cfa: $rbp 16 +
STACK CFI 373f .cfa: $rsp 8 +
STACK CFI INIT 3740 12 .cfa: $rsp 8 + .ra: .cfa -8 + ^
STACK CFI 3741 $rbp: .cfa -16 + ^ .cfa: $rsp 16 +
STACK CFI 3744 .cfa: $rbp 16 +
STACK CFI 3751 .cfa: $rsp 8 +
STACK CFI INIT 3752 25 .cfa: $rsp 8 + .ra: .cfa -8 + ^
STACK CFI 3753 $rbp: .cfa -16 + ^ .cfa: $rsp 16 +
STACK CFI 3756 .cfa: $rbp 16 +
STACK CFI 3776 .cfa: $rsp 8 +
STACK CFI INIT 3778 22 .cfa: $rsp 8 + .ra: .cfa -8 + ^
STACK CFI 3779 $rbp: .cfa -16 + ^ .cfa: $rsp 16 +
STACK CFI 377c .cfa: $rbp 16 +
STACK CFI 3781 $rbx: .cfa -24 + ^
STACK CFI 3799 .cfa: $rsp 8 +
STACK CFI INIT 379a 15 .cfa: $rsp 8 + .ra: .cfa -8 + ^
STACK CFI 379b $rbp: .cfa -16 + ^ .cfa: $rsp 16 +
STACK CFI 379e .cfa: $rbp 16 +
STACK CFI 37ae .cfa: $rsp 8 +
STACK CFI INIT 37b0 29 .cfa: $rsp 8 + .ra: .cfa -8 + ^
STACK CFI 37b1 $rbp: .cfa -16 + ^ .cfa: $rsp 16 +
STACK CFI 37b4 .cfa: $rbp 16 +
STACK CFI 37d8 .cfa: $rsp 8 +
STACK CFI INIT 37da 1a .cfa: $rsp 8 + .ra: .cfa -8 + ^
STACK CFI 37db $rbp: .cfa -16 + ^ .cfa: $rsp 16 +
STACK CFI 37de .cfa: $rbp 16 +
STACK CFI 37f3 .cfa: $rsp 8 +
STACK CFI INIT 37f4 22 .cfa: $rsp 8 + .ra: .cfa -8 + ^
STACK CFI 37f5 $rbp: .cfa -16 + ^ .cfa: $rsp 16 +
STACK CFI 37f8 .cfa: $rbp 16 +
STACK CFI 3815 .cfa: $rsp 8 +
STACK CFI INIT 3816 e .cfa: $rsp 8 + .ra: .cfa -8 + ^
STACK CFI 3817 $rbp: .cfa -16 + ^ .cfa: $rsp 16 +
STACK CFI 381a .cfa: $rbp 16 +
STACK CFI 3823 .cfa: $rsp 8 +
STACK CFI INIT 3824 a .cfa: $rsp 8 + .ra: .cfa -8 + ^
STACK CFI 3825 $rbp: .cfa -16 + ^ .cfa: $rsp 16 +
STACK CFI 3828 .cfa: $rbp 16 +
STACK CFI 382d .cfa: $rsp 8 +
STACK CFI INIT 382e 25 .cfa: $rsp 8 + .ra: .cfa -8 + ^
STACK CFI 382f $rbp: .cfa -16 + ^ .cfa: $rsp 16 +
STACK CFI 3832 .cfa: $rbp 16 +
STACK CFI 3852 .cfa: $rsp 8 +
STACK CFI INIT 3854 3c .cfa: $rsp 8 + .ra: .cfa -8 + ^
STACK CFI 3855 $rbp: .cfa -16 + ^ .cfa: $rsp 16 +
STACK CFI 3858 .cfa: $rbp 16 +
STACK CFI 388f .cfa: $rsp 8 +
STACK CFI INIT 3890 30 .cfa: $rsp 8 + .ra: .cfa -8 + ^
STACK CFI 3891 $rbp: .cfa -16 + ^ .cfa: $rsp 16 +
STACK CFI 3894 .cfa: $rbp 16 +
STACK CFI 38bf .cfa: $rsp 8 +
STACK CFI INIT 38c0 e .cfa: $rsp 8 + .ra: .cfa -8 + ^
STACK CFI 38c1 $rbp: .cfa -16 + ^ .cfa: $rsp 16 +
STACK CFI 38c4 .cfa: $rbp 16 +
STACK CFI 38cd .cfa: $rsp 8 +
STACK CFI INIT 38ce e .cfa: $rsp 8 + .ra: .cfa -8 + ^
STACK CFI 38cf $rbp: .cfa -16 + ^ .cfa: $rsp 16 +
STACK CFI 38d2 .cfa: $rbp 16 +
STACK CFI 38db .cfa: $rsp 8 +
STACK CFI INIT 38dc 11 .cfa: $rsp 8 + .ra: .cfa -8 + ^
STACK CFI 38dd $rbp: .cfa -16 + ^ .cfa: $rsp 16 +
STACK CFI 38e0 .cfa: $rbp 16 +
STACK CFI 38ec .cfa: $rsp 8 +
STACK CFI INIT 38ed 1a .cfa: $rsp 8 + .ra: .cfa -8 + ^
STACK CFI 38ee $rbp: .cfa -16 + ^ .cfa: $rsp 16 +
STACK CFI 38f1 .cfa: $rbp 16 +
STACK CFI 3906 .cfa: $rsp 8 +
STACK CFI INIT 3907 e .cfa: $rsp 8 + .ra: .cfa -8 + ^
STACK CFI 3908 $rbp: .cfa -16 + ^ .cfa: $rsp 16 +
STACK CFI 390b .cfa: $rbp 16 +
STACK CFI 3914 .cfa: $rsp 8 +
STACK CFI INIT 3916 4c .cfa: $rsp 8 + .ra: .cfa -8 + ^
STACK CFI 3917 $rbp: .cfa -16 + ^ .cfa: $rsp 16 +
STACK CFI 391a .cfa: $rbp 16 +
STACK CFI 3961 .cfa: $rsp 8 +
STACK CFI INIT 3962 25 .cfa: $rsp 8 + .ra: .cfa -8 + ^
STACK CFI 3963 $rbp: .cfa -16 + ^ .cfa: $rsp 16 +
STACK CFI 3966 .cfa: $rbp 16 +
STACK CFI 3986 .cfa: $rsp 8 +
STACK CFI INIT 3987 34 .cfa: $rsp 8 + .ra: .cfa -8 + ^
STACK CFI 3988 $rbp: .cfa -16 + ^ .cfa: $rsp 16 +
STACK CFI 398b .cfa: $rbp 16 +
STACK CFI 39ba .cfa: $rsp 8 +
STACK CFI INIT 39bc 1c .cfa: $rsp 8 + .ra: .cfa -8 + ^
STACK CFI 39bd $rbp: .cfa -16 + ^ .cfa: $rsp 16 +
STACK CFI 39c0 .cfa: $rbp 16 +
STACK CFI 39d7 .cfa: $rsp 8 +
STACK CFI INIT 39d8 e .cfa: $rsp 8 + .ra: .cfa -8 + ^
STACK CFI 39d9 $rbp: .cfa -16 + ^ .cfa: $rsp 16 +
STACK CFI 39dc .cfa: $rbp 16 +
STACK CFI 39e5 .cfa: $rsp 8 +
STACK CFI INIT 39e6 e .cfa: $rsp 8 + .ra: .cfa -8 + ^
STACK CFI 39e7 $rbp: .cfa -16 + ^ .cfa: $rsp 16 +
STACK CFI 39ea .cfa: $rbp 16 +
STACK CFI 39f3 .cfa: $rsp 8 +
STACK CFI INIT 39f4 e .cfa: $rsp 8 + .ra: .cfa -8 + ^
STACK CFI 39f5 $rbp: .cfa -16 + ^ .cfa: $rsp 16 +
STACK CFI 39f8 .cfa: $rbp 16 +
STACK CFI 3a01 .cfa: $rsp 8 +
STACK CFI INIT 3a02 117 .cfa: $rsp 8 + .ra: .cfa -8 + ^
STACK CFI 3a03 $rbp: .cfa -16 + ^ .cfa: $rsp 16 +
STACK CFI 3a06 .cfa: $rbp 16 +
STACK CFI 3a0d $r12: .cfa -24 + ^ $rbx: .cfa -32 + ^
STACK CFI 3b18 .cfa: $rsp 8 +
STACK CFI INIT 3b19 38 .cfa: $rsp 8 + .ra: .cfa -8 + ^
STACK CFI 3b1a $rbp: .cfa -16 + ^ .cfa: $rsp 16 +
STACK CFI 3b1d .cfa: $rbp 16 +
STACK CFI 3b50 .cfa: $rsp 8 +
STACK CFI INIT 3b52 1ea .cfa: $rsp 8 + .ra: .cfa -8 + ^
STACK CFI 3b53 $rbp: .cfa -16 + ^ .cfa: $rsp 16 +
STACK CFI 3b56 .cfa: $rbp 16 +
STACK CFI 3b5b $rbx: .cfa -24 + ^
STACK CFI 3d3b .cfa: $rsp 8 +
STACK CFI INIT 3d3c 1c .cfa: $rsp 8 + .ra: .cfa -8 + ^
STACK CFI 3d3d $rbp: .cfa -16 + ^ .cfa: $rsp 16 +
STACK CFI 3d40 .cfa: $rbp 16 +
STACK CFI 3d57 .cfa: $rsp 8 +
STACK CFI INIT 3d58 e .cfa: $rsp 8 + .ra: .cfa -8 + ^
STACK CFI 3d59 $rbp: .cfa -16 + ^ .cfa: $rsp 16 +
STACK CFI 3d5c .cfa: $rbp 16 +
STACK CFI 3d65 .cfa: $rsp 8 +
STACK CFI INIT 3d66 1a .cfa: $rsp 8 + .ra: .cfa -8 + ^
STACK CFI 3d67 $rbp: .cfa -16 + ^ .cfa: $rsp 16 +
STACK CFI 3d6a .cfa: $rbp 16 +
STACK CFI 3d7f .cfa: $rsp 8 +
STACK CFI INIT 3d80 1a .cfa: $rsp 8 + .ra: .cfa -8 + ^
STACK CFI 3d81 $rbp: .cfa -16 + ^ .cfa: $rsp 16 +
STACK CFI 3d84 .cfa: $rbp 16 +
STACK CFI 3d99 .cfa: $rsp 8 +
STACK CFI INIT 3d9a 4f .cfa: $rsp 8 + .ra: .cfa -8 + ^
STACK CFI 3d9b $rbp: .cfa -16 + ^ .cfa: $rsp 16 +
STACK CFI 3d9e .cfa: $rbp 16 +
STACK CFI 3de8 .cfa: $rsp 8 +
STACK CFI INIT 3dea e .cfa: $rsp 8 + .ra: .cfa -8 + ^
STACK CFI 3deb $rbp: .cfa -16 + ^ .cfa: $rsp 16 +
STACK CFI 3dee .cfa: $rbp 16 +
STACK CFI 3df7 .cfa: $rsp 8 +
STACK CFI INIT 3df8 29 .cfa: $rsp 8 + .ra: .cfa -8 + ^
STACK CFI 3df9 $rbp: .cfa -16 + ^ .cfa: $rsp 16 +
STACK CFI 3dfc .cfa: $rbp 16 +
STACK CFI 3e20 .cfa: $rsp 8 +
STACK CFI INIT 3e22 61 .cfa: $rsp 8 + .ra: .cfa -8 + ^
STACK CFI 3e23 $rbp: .cfa -16 + ^ .cfa: $rsp 16 +
STACK CFI 3e26 .cfa: $rbp 16 +
STACK CFI 3e82 .cfa: $rsp 8 +
STACK CFI INIT 3e84 a .cfa: $rsp 8 + .ra: .cfa -8 + ^
STACK CFI 3e85 $rbp: .cfa -16 + ^ .cfa: $rsp 16 +
STACK CFI 3e88 .cfa: $rbp 16 +
STACK CFI 3e8d .cfa: $rsp 8 +
STACK CFI INIT 3e8e 12 .cfa: $rsp 8 + .ra: .cfa -8 + ^
STACK CFI 3e8f $rbp: .cfa -16 + ^ .cfa: $rsp 16 +
STACK CFI 3e92 .cfa: $rbp 16 +
STACK CFI 3e9f .cfa: $rsp 8 +
STACK CFI INIT 3ea0 12 .cfa: $rsp 8 + .ra: .cfa -8 + ^
STACK CFI 3ea1 $rbp: .cfa -16 + ^ .cfa: $rsp 16 +
STACK CFI 3ea4 .cfa: $rbp 16 +
STACK CFI 3eb1 .cfa: $rsp 8 +
STACK CFI INIT 3eb2 40 .cfa: $rsp 8 + .ra: .cfa -8 + ^
STACK CFI 3eb3 $rbp: .cfa -16 + ^ .cfa: $rsp 16 +
STACK CFI 3eb6 .cfa: $rbp 16 +
STACK CFI 3ef1 .cfa: $rsp 8 +
STACK CFI INIT 3ef2 4c .cfa: $rsp 8 + .ra: .cfa -8 + ^
STACK CFI 3ef3 $rbp: .cfa -16 + ^ .cfa: $rsp 16 +
STACK CFI 3ef6 .cfa: $rbp 16 +
STACK CFI 3efb $rbx: .cfa -24 + ^
STACK CFI 3f3d .cfa: $rsp 8 +
STACK CFI INIT 3f3e a .cfa: $rsp 8 + .ra: .cfa -8 + ^
STACK CFI 3f3f $rbp: .cfa -16 + ^ .cfa: $rsp 16 +
STACK CFI 3f42 .cfa: $rbp 16 +
STACK CFI 3f47 .cfa: $rsp 8 +
STACK CFI INIT 3f48 28 .cfa: $rsp 8 + .ra: .cfa -8 + ^
STACK CFI 3f49 $rbp: .cfa -16 + ^ .cfa: $rsp 16 +
STACK CFI 3f4c .cfa: $rbp 16 +
STACK CFI 3f6f .cfa: $rsp 8 +
STACK CFI INIT 3f70 29 .cfa: $rsp 8 + .ra: .cfa -8 + ^
STACK CFI 3f71 $rbp: .cfa -16 + ^ .cfa: $rsp 16 +
STACK CFI 3f74 .cfa: $rbp 16 +
STACK CFI 3f98 .cfa: $rsp 8 +
STACK CFI INIT 3f9a bf .cfa: $rsp 8 + .ra: .cfa -8 + ^
STACK CFI 3f9b $rbp: .cfa -16 + ^ .cfa: $rsp 16 +
STACK CFI 3f9e .cfa: $rbp 16 +
STACK CFI 3fa7 $r12: .cfa -32 + ^ $r13: .cfa -24 + ^ $rbx: .cfa -40 + ^
STACK CFI 4058 .cfa: $rsp 8 +
STACK CFI INIT 4059 e .cfa: $rsp 8 + .ra: .cfa -8 + ^
STACK CFI 405a $rbp: .cfa -16 + ^ .cfa: $rsp 16 +
STACK CFI 405d .cfa: $rbp 16 +
STACK CFI 4066 .cfa: $rsp 8 +
STACK CFI INIT 4068 3b .cfa: $rsp 8 + .ra: .cfa -8 + ^
STACK CFI 4069 $rbp: .cfa -16 + ^ .cfa: $rsp 16 +
STACK CFI 406c .cfa: $rbp 16 +
STACK CFI 40a2 .cfa: $rsp 8 +
STACK CFI INIT 40a4 43 .cfa: $rsp 8 + .ra: .cfa -8 + ^
STACK CFI 40a5 $rbp: .cfa -16 + ^ .cfa: $rsp 16 +
STACK CFI 40a8 .cfa: $rbp 16 +
STACK CFI 40e6 .cfa: $rsp 8 +
STACK CFI INIT 40e8 3b .cfa: $rsp 8 + .ra: .cfa -8 + ^
STACK CFI 40e9 $rbp: .cfa -16 + ^ .cfa: $rsp 16 +
STACK CFI 40ec .cfa: $rbp 16 +
STACK CFI 4122 .cfa: $rsp 8 +
STACK CFI INIT 4124 379 .cfa: $rsp 8 + .ra: .cfa -8 + ^
STACK CFI 4125 $rbp: .cfa -16 + ^ .cfa: $rsp 16 +
STACK CFI 4128 .cfa: $rbp 16 +
STACK CFI 412d $rbx: .cfa -24 + ^
STACK CFI 449c .cfa: $rsp 8 +
STACK CFI INIT 449d 2c .cfa: $rsp 8 + .ra: .cfa -8 + ^
STACK CFI 449e $rbp: .cfa -16 + ^ .cfa: $rsp 16 +
STACK CFI 44a1 .cfa: $rbp 16 +
STACK CFI 44c8 .cfa: $rsp 8 +
STACK CFI INIT 44ca c2 .cfa: $rsp 8 + .ra: .cfa -8 + ^
STACK CFI 44cb $rbp: .cfa -16 + ^ .cfa: $rsp 16 +
STACK CFI 44ce .cfa: $rbp 16 +
STACK CFI 44d3 $rbx: .cfa -24 + ^
STACK CFI 458b .cfa: $rsp 8 +
STACK CFI INIT 458c 19 .cfa: $rsp 8 + .ra: .cfa -8 + ^
STACK CFI 458d $rbp: .cfa -16 + ^ .cfa: $rsp 16 +
STACK CFI 4590 .cfa: $rbp 16 +
STACK CFI 45a4 .cfa: $rsp 8 +
STACK CFI INIT 45a5 38 .cfa: $rsp 8 + .ra: .cfa -8 + ^
STACK CFI 45a6 $rbp: .cfa -16 + ^ .cfa: $rsp 16 +
STACK CFI 45a9 .cfa: $rbp 16 +
STACK CFI 45dc .cfa: $rsp 8 +
STACK CFI INIT 45de c9 .cfa: $rsp 8 + .ra: .cfa -8 + ^
STACK CFI 45df $rbp: .cfa -16 + ^ .cfa: $rsp 16 +
STACK CFI 45e2 .cfa: $rbp 16 +
STACK CFI 45e7 $rbx: .cfa -24 + ^
STACK CFI 46a6 .cfa: $rsp 8 +
STACK CFI INIT 46a8 38 .cfa: $rsp 8 + .ra: .cfa -8 + ^
STACK CFI 46a9 $rbp: .cfa -16 + ^ .cfa: $rsp 16 +
STACK CFI 46ac .cfa: $rbp 16 +
STACK CFI 46df .cfa: $rsp 8 +
STACK CFI INIT 46e0 26 .cfa: $rsp 8 + .ra: .cfa -8 + ^
STACK CFI 46e1 $rbp: .cfa -16 + ^ .cfa: $rsp 16 +
STACK CFI 46e4 .cfa: $rbp 16 +
STACK CFI 4705 .cfa: $rsp 8 +
STACK CFI INIT 4706 4e .cfa: $rsp 8 + .ra: .cfa -8 + ^
STACK CFI 4707 $rbp: .cfa -16 + ^ .cfa: $rsp 16 +
STACK CFI 470a .cfa: $rbp 16 +
STACK CFI 470f $rbx: .cfa -24 + ^
STACK CFI 4753 .cfa: $rsp 8 +
STACK CFI INIT 4754 25 .cfa: $rsp 8 + .ra: .cfa -8 + ^
STACK CFI 4755 $rbp: .cfa -16 + ^ .cfa: $rsp 16 +
STACK CFI 4758 .cfa: $rbp 16 +
STACK CFI 4778 .cfa: $rsp 8 +
STACK CFI INIT 477a 34 .cfa: $rsp 8 + .ra: .cfa -8 + ^
STACK CFI 477b $rbp: .cfa -16 + ^ .cfa: $rsp 16 +
STACK CFI 477e .cfa: $rbp 16 +
STACK CFI 47ad .cfa: $rsp 8 +
STACK CFI INIT 47ae 3d .cfa: $rsp 8 + .ra: .cfa -8 + ^
STACK CFI 47af $rbp: .cfa -16 + ^ .cfa: $rsp 16 +
STACK CFI 47b2 .cfa: $rbp 16 +
STACK CFI 47ea .cfa: $rsp 8 +
STACK CFI INIT 47ec 1a .cfa: $rsp 8 + .ra: .cfa -8 + ^
STACK CFI 47ed $rbp: .cfa -16 + ^ .cfa: $rsp 16 +
STACK CFI 47f0 .cfa: $rbp 16 +
STACK CFI 4805 .cfa: $rsp 8 +
STACK CFI INIT 4806 25 .cfa: $rsp 8 + .ra: .cfa -8 + ^
STACK CFI 4807 $rbp: .cfa -16 + ^ .cfa: $rsp 16 +
STACK CFI 480a .cfa: $rbp 16 +
STACK CFI 482a .cfa: $rsp 8 +
STACK CFI INIT 482c 1a .cfa: $rsp 8 + .ra: .cfa -8 + ^
STACK CFI 482d $rbp: .cfa -16 + ^ .cfa: $rsp 16 +
STACK CFI 4830 .cfa: $rbp 16 +
STACK CFI 4845 .cfa: $rsp 8 +
STACK CFI INIT 4846 41 .cfa: $rsp 8 + .ra: .cfa -8 + ^
STACK CFI 4847 $rbp: .cfa -16 + ^ .cfa: $rsp 16 +
STACK CFI 484a .cfa: $rbp 16 +
STACK CFI 4886 .cfa: $rsp 8 +
STACK CFI INIT 4888 e .cfa: $rsp 8 + .ra: .cfa -8 + ^
STACK CFI 4889 $rbp: .cfa -16 + ^ .cfa: $rsp 16 +
STACK CFI 488c .cfa: $rbp 16 +
STACK CFI 4895 .cfa: $rsp 8 +
STACK CFI INIT 4896 2a .cfa: $rsp 8 + .ra: .cfa -8 + ^
STACK CFI 4897 $rbp: .cfa -16 + ^ .cfa: $rsp 16 +
STACK CFI 489a .cfa: $rbp 16 +
STACK CFI 48bf .cfa: $rsp 8 +
STACK CFI INIT 48c0 1e .cfa: $rsp 8 + .ra: .cfa -8 + ^
STACK CFI 48c1 $rbp: .cfa -16 + ^ .cfa: $rsp 16 +
STACK CFI 48c4 .cfa: $rbp 16 +
STACK CFI 48dd .cfa: $rsp 8 +
STACK CFI INIT 48de 1e .cfa: $rsp 8 + .ra: .cfa -8 + ^
STACK CFI 48df $rbp: .cfa -16 + ^ .cfa: $rsp 16 +
STACK CFI 48e2 .cfa: $rbp 16 +
STACK CFI 48fb .cfa: $rsp 8 +
STACK CFI INIT 48fc 2a .cfa: $rsp 8 + .ra: .cfa -8 + ^
STACK CFI 48fd $rbp: .cfa -16 + ^ .cfa: $rsp 16 +
STACK CFI 4900 .cfa: $rbp 16 +
STACK CFI 4925 .cfa: $rsp 8 +
STACK CFI INIT 4926 12 .cfa: $rsp 8 + .ra: .cfa -8 + ^
STACK CFI 4927 $rbp: .cfa -16 + ^ .cfa: $rsp 16 +
STACK CFI 492a .cfa: $rbp 16 +
STACK CFI 4937 .cfa: $rsp 8 +
STACK CFI INIT 4938 8d .cfa: $rsp 8 + .ra: .cfa -8 + ^
STACK CFI 4939 $rbp: .cfa -16 + ^ .cfa: $rsp 16 +
STACK CFI 493c .cfa: $rbp 16 +
STACK CFI 49c4 .cfa: $rsp 8 +
STACK CFI INIT 49c6 24 .cfa: $rsp 8 + .ra: .cfa -8 + ^
STACK CFI 49c7 $rbp: .cfa -16 + ^ .cfa: $rsp 16 +
STACK CFI 49ca .cfa: $rbp 16 +
STACK CFI 49e9 .cfa: $rsp 8 +
STACK CFI INIT 49ea 6b .cfa: $rsp 8 + .ra: .cfa -8 + ^
STACK CFI 49eb $rbp: .cfa -16 + ^ .cfa: $rsp 16 +
STACK CFI 49ee .cfa: $rbp 16 +
STACK CFI 49f5 $r12: .cfa -24 + ^ $rbx: .cfa -32 + ^
STACK CFI 4a54 .cfa: $rsp 8 +
STACK CFI INIT 4a56 28 .cfa: $rsp 8 + .ra: .cfa -8 + ^
STACK CFI 4a57 $rbp: .cfa -16 + ^ .cfa: $rsp 16 +
STACK CFI 4a5a .cfa: $rbp 16 +
STACK CFI 4a7d .cfa: $rsp 8 +
STACK CFI INIT 4a7e 12 .cfa: $rsp 8 + .ra: .cfa -8 + ^
STACK CFI 4a7f $rbp: .cfa -16 + ^ .cfa: $rsp 16 +
STACK CFI 4a82 .cfa: $rbp 16 +
STACK CFI 4a8f .cfa: $rsp 8 +
STACK CFI INIT 4a90 2c .cfa: $rsp 8 + .ra: .cfa -8 + ^
STACK CFI 4a91 $rbp: .cfa -16 + ^ .cfa: $rsp 16 +
STACK CFI 4a94 .cfa: $rbp 16 +
STACK CFI 4abb .cfa: $rsp 8 +
STACK CFI INIT 4abc 12 .cfa: $rsp 8 + .ra: .cfa -8 + ^
STACK CFI 4abd $rbp: .cfa -16 + ^ .cfa: $rsp 16 +
STACK CFI 4ac0 .cfa: $rbp 16 +
STACK CFI 4acd .cfa: $rsp 8 +
STACK CFI INIT 4ace e .cfa: $rsp 8 + .ra: .cfa -8 + ^
STACK CFI 4acf $rbp: .cfa -16 + ^ .cfa: $rsp 16 +
STACK CFI 4ad2 .cfa: $rbp 16 +
STACK CFI 4adb .cfa: $rsp 8 +
STACK CFI INIT 4adc 43 .cfa: $rsp 8 + .ra: .cfa -8 + ^
STACK CFI 4add $rbp: .cfa -16 + ^ .cfa: $rsp 16 +
STACK CFI 4ae0 .cfa: $rbp 16 +
STACK CFI 4b1e .cfa: $rsp 8 +
STACK CFI INIT 4b20 16d .cfa: $rsp 8 + .ra: .cfa -8 + ^
STACK CFI 4b21 $rbp: .cfa -16 + ^ .cfa: $rsp 16 +
STACK CFI 4b24 .cfa: $rbp 16 +
STACK CFI 4c8c .cfa: $rsp 8 +
STACK CFI INIT 4c8e 12 .cfa: $rsp 8 + .ra: .cfa -8 + ^
STACK CFI 4c8f $rbp: .cfa -16 + ^ .cfa: $rsp 16 +
STACK CFI 4c92 .cfa: $rbp 16 +
STACK CFI 4c9f .cfa: $rsp 8 +
STACK CFI INIT 4ca0 28 .cfa: $rsp 8 + .ra: .cfa -8 + ^
STACK CFI 4ca1 $rbp: .cfa -16 + ^ .cfa: $rsp 16 +
STACK CFI 4ca4 .cfa: $rbp 16 +
STACK CFI 4cc7 .cfa: $rsp 8 +
STACK CFI INIT 4cc8 28 .cfa: $rsp 8 + .ra: .cfa -8 + ^
STACK CFI 4cc9 $rbp: .cfa -16 + ^ .cfa: $rsp 16 +
STACK CFI 4ccc .cfa: $rbp 16 +
STACK CFI 4cef .cfa: $rsp 8 +
STACK CFI INIT 4cf0 12 .cfa: $rsp 8 + .ra: .cfa -8 + ^
STACK CFI 4cf1 $rbp: .cfa -16 + ^ .cfa: $rsp 16 +
STACK CFI 4cf4 .cfa: $rbp 16 +
STACK CFI 4d01 .cfa: $rsp 8 +
STACK CFI INIT 4d02 12 .cfa: $rsp 8 + .ra: .cfa -8 + ^
STACK CFI 4d03 $rbp: .cfa -16 + ^ .cfa: $rsp 16 +
STACK CFI 4d06 .cfa: $rbp 16 +
STACK CFI 4d13 .cfa: $rsp 8 +
STACK CFI INIT 4d14 74 .cfa: $rsp 8 + .ra: .cfa -8 + ^
STACK CFI 4d15 $rbp: .cfa -16 + ^ .cfa: $rsp 16 +
STACK CFI 4d18 .cfa: $rbp 16 +
STACK CFI 4d21 $r12: .cfa -32 + ^ $r13: .cfa -24 + ^ $rbx: .cfa -40 + ^
STACK CFI 4d87 .cfa: $rsp 8 +
STACK CFI INIT 4d88 22 .cfa: $rsp 8 + .ra: .cfa -8 + ^
STACK CFI 4d89 $rbp: .cfa -16 + ^ .cfa: $rsp 16 +
STACK CFI 4d8c .cfa: $rbp 16 +
STACK CFI 4da9 .cfa: $rsp 8 +
STACK CFI INIT 4daa 2b .cfa: $rsp 8 + .ra: .cfa -8 + ^
STACK CFI 4dab $rbp: .cfa -16 + ^ .cfa: $rsp 16 +
STACK CFI 4dae .cfa: $rbp 16 +
STACK CFI 4dd4 .cfa: $rsp 8 +
STACK CFI INIT 4dd6 42 .cfa: $rsp 8 + .ra: .cfa -8 + ^
STACK CFI 4dd7 $rbp: .cfa -16 + ^ .cfa: $rsp 16 +
STACK CFI 4dda .cfa: $rbp 16 +
STACK CFI 4e17 .cfa: $rsp 8 +
STACK CFI INIT 4e18 25 .cfa: $rsp 8 + .ra: .cfa -8 + ^
STACK CFI 4e19 $rbp: .cfa -16 + ^ .cfa: $rsp 16 +
STACK CFI 4e1c .cfa: $rbp 16 +
STACK CFI 4e3c .cfa: $rsp 8 +
STACK CFI INIT 4e3d 31 .cfa: $rsp 8 + .ra: .cfa -8 + ^
STACK CFI 4e3e $rbp: .cfa -16 + ^ .cfa: $rsp 16 +
STACK CFI 4e41 .cfa: $rbp 16 +
STACK CFI 4e6d .cfa: $rsp 8 +
STACK CFI INIT 4e6e 25 .cfa: $rsp 8 + .ra: .cfa -8 + ^
STACK CFI 4e6f $rbp: .cfa -16 + ^ .cfa: $rsp 16 +
STACK CFI 4e72 .cfa: $rbp 16 +
STACK CFI 4e92 .cfa: $rsp 8 +
STACK CFI INIT 4e94 22 .cfa: $rsp 8 + .ra: .cfa -8 + ^
STACK CFI 4e95 $rbp: .cfa -16 + ^ .cfa: $rsp 16 +
STACK CFI 4e98 .cfa: $rbp 16 +
STACK CFI 4eb5 .cfa: $rsp 8 +
STACK CFI INIT 4eb6 1a .cfa: $rsp 8 + .ra: .cfa -8 + ^
STACK CFI 4eb7 $rbp: .cfa -16 + ^ .cfa: $rsp 16 +
STACK CFI 4eba .cfa: $rbp 16 +
STACK CFI 4ecf .cfa: $rsp 8 +
STACK CFI INIT 4ed0 a .cfa: $rsp 8 + .ra: .cfa -8 + ^
STACK CFI 4ed1 $rbp: .cfa -16 + ^ .cfa: $rsp 16 +
STACK CFI 4ed4 .cfa: $rbp 16 +
STACK CFI 4ed9 .cfa: $rsp 8 +
STACK CFI INIT 4eda 37 .cfa: $rsp 8 + .ra: .cfa -8 + ^
STACK CFI 4edb $rbp: .cfa -16 + ^ .cfa: $rsp 16 +
STACK CFI 4ede .cfa: $rbp 16 +
STACK CFI 4f10 .cfa: $rsp 8 +
STACK CFI INIT 4f12 a .cfa: $rsp 8 + .ra: .cfa -8 + ^
STACK CFI 4f13 $rbp: .cfa -16 + ^ .cfa: $rsp 16 +
STACK CFI 4f16 .cfa: $rbp 16 +
STACK CFI 4f1b .cfa: $rsp 8 +
STACK CFI INIT 4f1c 22 .cfa: $rsp 8 + .ra: .cfa -8 + ^
STACK CFI 4f1d $rbp: .cfa -16 + ^ .cfa: $rsp 16 +
STACK CFI 4f20 .cfa: $rbp 16 +
STACK CFI 4f3d .cfa: $rsp 8 +
STACK CFI INIT 4f3e 4b .cfa: $rsp 8 + .ra: .cfa -8 + ^
STACK CFI 4f3f $rbp: .cfa -16 + ^ .cfa: $rsp 16 +
STACK CFI 4f42 .cfa: $rbp 16 +
STACK CFI 4f88 .cfa: $rsp 8 +
STACK CFI INIT 4f89 6b .cfa: $rsp 8 + .ra: .cfa -8 + ^
STACK CFI 4f8a $rbp: .cfa -16 + ^ .cfa: $rsp 16 +
STACK CFI 4f8d .cfa: $rbp 16 +
STACK CFI 4f94 $r12: .cfa -24 + ^ $rbx: .cfa -32 + ^
STACK CFI 4ff3 .cfa: $rsp 8 +
STACK CFI INIT 4ff4 12 .cfa: $rsp 8 + .ra: .cfa -8 + ^
STACK CFI 4ff5 $rbp: .cfa -16 + ^ .cfa: $rsp 16 +
STACK CFI 4ff8 .cfa: $rbp 16 +
STACK CFI 5005 .cfa: $rsp 8 +
STACK CFI INIT 5006 29 .cfa: $rsp 8 + .ra: .cfa -8 + ^
STACK CFI 5007 $rbp: .cfa -16 + ^ .cfa: $rsp 16 +
STACK CFI 500a .cfa: $rbp 16 +
STACK CFI 502e .cfa: $rsp 8 +
STACK CFI INIT 502f 1a .cfa: $rsp 8 + .ra: .cfa -8 + ^
STACK CFI 5030 $rbp: .cfa -16 + ^ .cfa: $rsp 16 +
STACK CFI 5033 .cfa: $rbp 16 +
STACK CFI 5048 .cfa: $rsp 8 +
STACK CFI INIT 504a e .cfa: $rsp 8 + .ra: .cfa -8 + ^
STACK CFI 504b $rbp: .cfa -16 + ^ .cfa: $rsp 16 +
STACK CFI 504e .cfa: $rbp 16 +
STACK CFI 5057 .cfa: $rsp 8 +
STACK CFI INIT 5058 14 .cfa: $rsp 8 + .ra: .cfa -8 + ^
STACK CFI 5059 $rbp: .cfa -16 + ^ .cfa: $rsp 16 +
STACK CFI 505c .cfa: $rbp 16 +
STACK CFI 506b .cfa: $rsp 8 +
STACK CFI INIT 506c 19 .cfa: $rsp 8 + .ra: .cfa -8 + ^
STACK CFI 506d $rbp: .cfa -16 + ^ .cfa: $rsp 16 +
STACK CFI 5070 .cfa: $rbp 16 +
STACK CFI 5084 .cfa: $rsp 8 +
STACK CFI INIT 5085 2d .cfa: $rsp 8 + .ra: .cfa -8 + ^
STACK CFI 5086 $rbp: .cfa -16 + ^ .cfa: $rsp 16 +
STACK CFI 5089 .cfa: $rbp 16 +
STACK CFI 50b1 .cfa: $rsp 8 +
STACK CFI INIT 50b2 1e .cfa: $rsp 8 + .ra: .cfa -8 + ^
STACK CFI 50b3 $rbp: .cfa -16 + ^ .cfa: $rsp 16 +
STACK CFI 50b6 .cfa: $rbp 16 +
STACK CFI 50cf .cfa: $rsp 8 +
STACK CFI INIT 50d0 a .cfa: $rsp 8 + .ra: .cfa -8 + ^
STACK CFI 50d1 $rbp: .cfa -16 + ^ .cfa: $rsp 16 +
STACK CFI 50d4 .cfa: $rbp 16 +
STACK CFI 50d9 .cfa: $rsp 8 +
STACK CFI INIT 50da e .cfa: $rsp 8 + .ra: .cfa -8 + ^
STACK CFI 50db $rbp: .cfa -16 + ^ .cfa: $rsp 16 +
STACK CFI 50de .cfa: $rbp 16 +
STACK CFI 50e7 .cfa: $rsp 8 +
STACK CFI INIT 50e8 1a .cfa: $rsp 8 + .ra: .cfa -8 + ^
STACK CFI 50e9 $rbp: .cfa -16 + ^ .cfa: $rsp 16 +
STACK CFI 50ec .cfa: $rbp 16 +
STACK CFI 5101 .cfa: $rsp 8 +
STACK CFI INIT 5102 14 .cfa: $rsp 8 + .ra: .cfa -8 + ^
STACK CFI 5103 $rbp: .cfa -16 + ^ .cfa: $rsp 16 +
STACK CFI 5106 .cfa: $rbp 16 +
STACK CFI 5115 .cfa: $rsp 8 +
STACK CFI INIT 5116 a8 .cfa: $rsp 8 + .ra: .cfa -8 + ^
STACK CFI 5117 $rbp: .cfa -16 + ^ .cfa: $rsp 16 +
STACK CFI 511a .cfa: $rbp 16 +
STACK CFI 5127 $r12: .cfa -48 + ^ $r13: .cfa -40 + ^ $r14: .cfa -32 + ^ $r15: .cfa -24 + ^ $rbx: .cfa -56 + ^
STACK CFI 51bd .cfa: $rsp 8 +
STACK CFI INIT 51be 1a .cfa: $rsp 8 + .ra: .cfa -8 + ^
STACK CFI 51bf $rbp: .cfa -16 + ^ .cfa: $rsp 16 +
STACK CFI 51c2 .cfa: $rbp 16 +
STACK CFI 51d7 .cfa: $rsp 8 +
STACK CFI INIT 51d8 ad .cfa: $rsp 8 + .ra: .cfa -8 + ^
STACK CFI 51d9 $rbp: .cfa -16 + ^ .cfa: $rsp 16 +
STACK CFI 51dc .cfa: $rbp 16 +
STACK CFI 51e1 $rbx: .cfa -24 + ^
STACK CFI 5284 .cfa: $rsp 8 +
STACK CFI INIT 5286 a7 .cfa: $rsp 8 + .ra: .cfa -8 + ^
STACK CFI 5287 $rbp: .cfa -16 + ^ .cfa: $rsp 16 +
STACK CFI 528a .cfa: $rbp 16 +
STACK CFI 5291 $r12: .cfa -24 + ^ $rbx: .cfa -32 + ^
STACK CFI 532c .cfa: $rsp 8 +
STACK CFI INIT 532d 28 .cfa: $rsp 8 + .ra: .cfa -8 + ^
STACK CFI 532e $rbp: .cfa -16 + ^ .cfa: $rsp 16 +
STACK CFI 5331 .cfa: $rbp 16 +
STACK CFI 5354 .cfa: $rsp 8 +
STACK CFI INIT 5356 20 .cfa: $rsp 8 + .ra: .cfa -8 + ^
STACK CFI 5357 $rbp: .cfa -16 + ^ .cfa: $rsp 16 +
STACK CFI 535a .cfa: $rbp 16 +
STACK CFI 5375 .cfa: $rsp 8 +
STACK CFI INIT 5376 1d .cfa: $rsp 8 + .ra: .cfa -8 + ^
STACK CFI 5377 $rbp: .cfa -16 + ^ .cfa: $rsp 16 +
STACK CFI 537a .cfa: $rbp 16 +
STACK CFI 5392 .cfa: $rsp 8 +
STACK CFI INIT 5393 48 .cfa: $rsp 8 + .ra: .cfa -8 + ^
STACK CFI 5394 $rbp: .cfa -16 + ^ .cfa: $rsp 16 +
STACK CFI 5397 .cfa: $rbp 16 +
STACK CFI 539c $rbx: .cfa -24 + ^
STACK CFI 53da .cfa: $rsp 8 +
STACK CFI INIT 53dc 32 .cfa: $rsp 8 + .ra: .cfa -8 + ^
STACK CFI 53dd $rbp: .cfa -16 + ^ .cfa: $rsp 16 +
STACK CFI 53e0 .cfa: $rbp 16 +
STACK CFI 540d .cfa: $rsp 8 +
STACK CFI INIT 540e 39 .cfa: $rsp 8 + .ra: .cfa -8 + ^
STACK CFI 540f $rbp: .cfa -16 + ^ .cfa: $rsp 16 +
STACK CFI 5412 .cfa: $rbp 16 +
STACK CFI 5417 $rbx: .cfa -24 + ^
STACK CFI 5446 .cfa: $rsp 8 +
STACK CFI INIT 5447 1a .cfa: $rsp 8 + .ra: .cfa -8 + ^
STACK CFI 5448 $rbp: .cfa -16 + ^ .cfa: $rsp 16 +
STACK CFI 544b .cfa: $rbp 16 +
STACK CFI 5460 .cfa: $rsp 8 +
STACK CFI INIT 5461 1a .cfa: $rsp 8 + .ra: .cfa -8 + ^
STACK CFI 5462 $rbp: .cfa -16 + ^ .cfa: $rsp 16 +
STACK CFI 5465 .cfa: $rbp 16 +
STACK CFI 547a .cfa: $rsp 8 +
STACK CFI INIT 547c 6e .cfa: $rsp 8 + .ra: .cfa -8 + ^
STACK CFI 547d $rbp: .cfa -16 + ^ .cfa: $rsp 16 +
STACK CFI 5480 .cfa: $rbp 16 +
STACK CFI 5485 $rbx: .cfa -24 + ^
STACK CFI 54e9 .cfa: $rsp 8 +
STACK CFI INIT 54ea 11 .cfa: $rsp 8 + .ra: .cfa -8 + ^
STACK CFI 54eb $rbp: .cfa -16 + ^ .cfa: $rsp 16 +
STACK CFI 54ee .cfa: $rbp 16 +
STACK CFI 54fa .cfa: $rsp 8 +
STACK CFI INIT 3182 3d .cfa: $rsp 8 + .ra: .cfa -8 + ^
STACK CFI 3183 $rbp: .cfa -16 + ^ .cfa: $rsp 16 +
STACK CFI 3186 .cfa: $rbp 16 +
STACK CFI 31be .cfa: $rsp 8 +
STACK CFI INIT 31bf 15 .cfa: $rsp 8 + .ra: .cfa -8 + ^
STACK CFI 31c0 $rbp: .cfa -16 + ^ .cfa: $rsp 16 +
STACK CFI 31c3 .cfa: $rbp 16 +
STACK CFI 31d3 .cfa: $rsp 8 +
STACK CFI INIT 5500 f8 .cfa: $rsp 8 + .ra: .cfa -8 + ^
STACK CFI 550f $r13: .cfa -16 + ^ .cfa: $rsp 16 +
STACK CFI 5511 $r12: .cfa -24 + ^ .cfa: $rsp 24 +
STACK CFI 5519 $rbp: .cfa -32 + ^ .cfa: $rsp 32 +
STACK CFI 5521 $rbx: .cfa -40 + ^ .cfa: $rsp 40 +
STACK CFI 552f .cfa: $rsp 208 +
STACK CFI 55d3 .cfa: $rsp 40 +
STACK CFI 55d9 $rbx: $rbx .cfa: $rsp 32 +
STACK CFI 55da $rbp: $rbp .cfa: $rsp 24 +
STACK CFI 55dc $r12: $r12 .cfa: $rsp 16 +
STACK CFI 55de $r13: $r13 .cfa: $rsp 8 +
STACK CFI 55e8 $r12: .cfa -24 + ^ $r13: .cfa -16 + ^ $rbp: .cfa -32 + ^ $rbx: .cfa -40 + ^ .cfa: $rsp 208 +
STACK CFI 55ef .cfa: $rsp 40 +
STACK CFI 55f2 $rbx: $rbx .cfa: $rsp 32 +
STACK CFI 55f3 $rbp: $rbp .cfa: $rsp 24 +
STACK CFI 55f5 $r12: $r12 .cfa: $rsp 16 +
STACK CFI 55f7 $r13: $r13 .cfa: $rsp 8 +
STACK CFI INIT 5600 7c .cfa: $rsp 8 + .ra: .cfa -8 + ^
STACK CFI 560b $r13: .cfa -16 + ^ .cfa: $rsp 16 +
STACK CFI 5614 $r12: .cfa -24 + ^ .cfa: $rsp 24 +
STACK CFI 5615 $rbp: .cfa -32 + ^ .cfa: $rsp 32 +
STACK CFI 561d $rbx: .cfa -40 + ^ .cfa: $rsp 40 +
STACK CFI 5628 .cfa: $rsp 48 +
STACK CFI 5660 .cfa: $rsp 40 +
STACK CFI 5661 $rbx: $rbx .cfa: $rsp 32 +
STACK CFI 5662 $rbp: $rbp .cfa: $rsp 24 +
STACK CFI 5664 $r12: $r12 .cfa: $rsp 16 +
STACK CFI 5666 $r13: $r13 .cfa: $rsp 8 +
STACK CFI 5670 $r12: .cfa -24 + ^ $r13: .cfa -16 + ^ $rbp: .cfa -32 + ^ $rbx: .cfa -40 + ^ .cfa: $rsp 48 +
STACK CFI INIT 5680 361 .cfa: $rsp 8 + .ra: .cfa -8 + ^
STACK CFI 5682 $r12: .cfa -16 + ^ .cfa: $rsp 16 +
STACK CFI 5683 $rbp: .cfa -24 + ^ .cfa: $rsp 24 +
STACK CFI 5684 $rbx: .cfa -32 + ^ .cfa: $rsp 32 +
STACK CFI 5692 .cfa: $rsp 96 +
STACK CFI 5834 .cfa: $rsp 32 +
STACK CFI 5835 .cfa: $rsp 24 +
STACK CFI 5836 .cfa: $rsp 16 +
STACK CFI 5838 .cfa: $rsp 8 +
STACK CFI 5840 .cfa: $rsp 96 +
STACK CFI INIT 59f0 ce .cfa: $rsp 8 + .ra: .cfa -8 + ^
STACK CFI 59f2 $r15: .cfa -16 + ^ .cfa: $rsp 16 +
STACK CFI 59f4 $r14: .cfa -24 + ^ .cfa: $rsp 24 +
STACK CFI 59f9 $r13: .cfa -32 + ^ .cfa: $rsp 32 +
STACK CFI 5a02 $r12: .cfa -40 + ^ .cfa: $rsp 40 +
STACK CFI 5a09 $rbp: .cfa -48 + ^ .cfa: $rsp 48 +
STACK CFI 5a0f $rbx: .cfa -56 + ^ .cfa: $rsp 56 +
STACK CFI 5a13 .cfa: $rsp 64 +
STACK CFI 5a80 .cfa: $rsp 56 +
STACK CFI 5a8d .cfa: $rsp 48 +
STACK CFI 5a8e .cfa: $rsp 40 +
STACK CFI 5a90 .cfa: $rsp 32 +
STACK CFI 5a92 .cfa: $rsp 24 +
STACK CFI 5a94 .cfa: $rsp 16 +
STACK CFI 5a96 .cfa: $rsp 8 +
STACK CFI 5aa0 .cfa: $rsp 64 +
STACK CFI 5aa9 .cfa: $rsp 56 +
STACK CFI 5aaa .cfa: $rsp 48 +
STACK CFI 5aab .cfa: $rsp 40 +
STACK CFI 5aad .cfa: $rsp 32 +
STACK CFI 5aaf .cfa: $rsp 24 +
STACK CFI 5ab1 .cfa: $rsp 16 +
STACK CFI 5ab3 .cfa: $rsp 8 +
STACK CFI 5ab4 .cfa: $rsp 64 +
STACK CFI INIT 5ac0 48f .cfa: $rsp 8 + .ra: .cfa -8 + ^
STACK CFI 5ac2 $r15: .cfa -16 + ^ .cfa: $rsp 16 +
STACK CFI 5ac4 $r14: .cfa -24 + ^ .cfa: $rsp 24 +
STACK CFI 5ac6 $r13: .cfa -32 + ^ .cfa: $rsp 32 +
STACK CFI 5ac8 $r12: .cfa -40 + ^ .cfa: $rsp 40 +
STACK CFI 5ac9 $rbp: .cfa -48 + ^ .cfa: $rsp 48 +
STACK CFI 5acd $rbx: .cfa -56 + ^ .cfa: $rsp 56 +
STACK CFI 5ad4 .cfa: $rsp 144 +
STACK CFI 5aee .cfa: $rsp 56 +
STACK CFI 5af1 .cfa: $rsp 48 +
STACK CFI 5af2 .cfa: $rsp 40 +
STACK CFI 5af4 .cfa: $rsp 32 +
STACK CFI 5af6 .cfa: $rsp 24 +
STACK CFI 5af8 .cfa: $rsp 16 +
STACK CFI 5afa .cfa: $rsp 8 +
STACK CFI 5b00 .cfa: $rsp 144 +
STACK CFI INIT 5f50 1cc .cfa: $rsp 8 + .ra: .cfa -8 + ^
STACK CFI 5f52 $r13: .cfa -16 + ^ .cfa: $rsp 16 +
STACK CFI 5f54 $r12: .cfa -24 + ^ .cfa: $rsp 24 +
STACK CFI 5f58 $rbp: .cfa -32 + ^ .cfa: $rsp 32 +
STACK CFI 5f5c $rbx: .cfa -40 + ^ .cfa: $rsp 40 +
STACK CFI 5f63 .cfa: $rsp 48 +
STACK CFI 5f79 .cfa: $rsp 40 +
STACK CFI 5f7a .cfa: $rsp 32 +
STACK CFI 5f7b .cfa: $rsp 24 +
STACK CFI 5f7d .cfa: $rsp 16 +
STACK CFI 5f7f .cfa: $rsp 8 +
STACK CFI 5f80 .cfa: $rsp 48 +
STACK CFI 60e0 .cfa: $rsp 40 +
STACK CFI 60eb .cfa: $rsp 32 +
STACK CFI 60ec .cfa: $rsp 24 +
STACK CFI 60ee .cfa: $rsp 16 +
STACK CFI 60f0 .cfa: $rsp 8 +
STACK CFI 60f8 .cfa: $rsp 48 +
STACK CFI INIT 6120 1ce .cfa: $rsp 8 + .ra: .cfa -8 + ^
STACK CFI 6122 $r14: .cfa -16 + ^ .cfa: $rsp 16 +
STACK CFI 6127 $r13: .cfa -24 + ^ .cfa: $rsp 24 +
STACK CFI 612c $r12: .cfa -32 + ^ .cfa: $rsp 32 +
STACK CFI 6130 $rbp: .cfa -40 + ^ .cfa: $rsp 40 +
STACK CFI 6131 $rbx: .cfa -48 + ^ .cfa: $rsp 48 +
STACK CFI 6138 .cfa: $rsp 208 +
STACK CFI 6151 .cfa: $rsp 48 +
STACK CFI 6152 .cfa: $rsp 40 +
STACK CFI 6153 .cfa: $rsp 32 +
STACK CFI 6155 .cfa: $rsp 24 +
STACK CFI 6157 .cfa: $rsp 16 +
STACK CFI 6159 .cfa: $rsp 8 +
STACK CFI 6160 .cfa: $rsp 208 +
STACK CFI INIT 62f0 56 .cfa: $rsp 8 + .ra: .cfa -8 + ^
STACK CFI 62f7 .cfa: $rsp 1104 +
STACK CFI 6345 .cfa: $rsp 8 +
STACK CFI INIT 6350 c6 .cfa: $rsp 8 + .ra: .cfa -8 + ^
STACK CFI 6352 $r15: .cfa -16 + ^ .cfa: $rsp 16 +
STACK CFI 6354 $r14: .cfa -24 + ^ .cfa: $rsp 24 +
STACK CFI 6359 $r13: .cfa -32 + ^ .cfa: $rsp 32 +
STACK CFI 635b $r12: .cfa -40 + ^ .cfa: $rsp 40 +
STACK CFI 6362 $rbp: .cfa -48 + ^ .cfa: $rsp 48 +
STACK CFI 6365 $rbx: .cfa -56 + ^ .cfa: $rsp 56 +
STACK CFI 6369 .cfa: $rsp 80 +
STACK CFI 63e9 .cfa: $rsp 56 +
STACK CFI 63ea .cfa: $rsp 48 +
STACK CFI 63eb .cfa: $rsp 40 +
STACK CFI 63ed .cfa: $rsp 32 +
STACK CFI 63ef .cfa: $rsp 24 +
STACK CFI 63f1 .cfa: $rsp 16 +
STACK CFI 63f3 .cfa: $rsp 8 +
STACK CFI 63f8 .cfa: $rsp 80 +
STACK CFI 6401 .cfa: $rsp 56 +
STACK CFI 6402 .cfa: $rsp 48 +
STACK CFI 6403 .cfa: $rsp 40 +
STACK CFI 6405 .cfa: $rsp 32 +
STACK CFI 6407 .cfa: $rsp 24 +
STACK CFI 6409 .cfa: $rsp 16 +
STACK CFI 640b .cfa: $rsp 8 +
STACK CFI 640c .cfa: $rsp 80 +
STACK CFI INIT 6420 d0 .cfa: $rsp 8 + .ra: .cfa -8 + ^
STACK CFI 6421 $rbp: .cfa -16 + ^ .cfa: $rsp 16 +
STACK CFI 6428 $rbx: .cfa -24 + ^ .cfa: $rsp 24 +
STACK CFI 6432 .cfa: $rsp 64 +
STACK CFI 6489 .cfa: $rsp 24 +
STACK CFI 648a .cfa: $rsp 16 +
STACK CFI 648b .cfa: $rsp 8 +
STACK CFI 6490 .cfa: $rsp 64 +
STACK CFI 64b2 .cfa: $rsp 24 +
STACK CFI 64b3 .cfa: $rsp 16 +
STACK CFI 64b4 .cfa: $rsp 8 +
STACK CFI 64b8 .cfa: $rsp 64 +
STACK CFI 64ed .cfa: $rsp 24 +
STACK CFI 64ee .cfa: $rsp 16 +
STACK CFI 64ef .cfa: $rsp 8 +
STACK CFI INIT 64f0 82 .cfa: $rsp 8 + .ra: .cfa -8 + ^
STACK CFI 64f1 $rbp: .cfa -16 + ^ .cfa: $rsp 16 +
STACK CFI 64f7 $rbx: .cfa -24 + ^ .cfa: $rsp 24 +
STACK CFI 64fe .cfa: $rsp 32 +
STACK CFI 6569 .cfa: $rsp 24 +
STACK CFI 656d .cfa: $rsp 16 +
STACK CFI 6571 .cfa: $rsp 8 +
STACK CFI INIT 6580 168 .cfa: $rsp 8 + .ra: .cfa -8 + ^
STACK CFI 6581 $rbx: .cfa -16 + ^ .cfa: $rsp 16 +
STACK CFI 6588 .cfa: $rsp 1616 +
STACK CFI 65f2 .cfa: $rsp 16 +
STACK CFI 65f3 .cfa: $rsp 8 +
STACK CFI 65f8 .cfa: $rsp 1616 +
STACK CFI 668f .cfa: $rsp 16 +
STACK CFI 6690 .cfa: $rsp 8 +
STACK CFI 6698 .cfa: $rsp 1616 +
STACK CFI INIT 66f0 e0 .cfa: $rsp 8 + .ra: .cfa -8 + ^
STACK CFI 66f2 $r13: .cfa -16 + ^ .cfa: $rsp 16 +
STACK CFI 66fc $r12: .cfa -24 + ^ .cfa: $rsp 24 +
STACK CFI 6707 $rbp: .cfa -32 + ^ .cfa: $rsp 32 +
STACK CFI 6708 $rbx: .cfa -40 + ^ .cfa: $rsp 40 +
STACK CFI 670f .cfa: $rsp 672 +
STACK CFI 67ba .cfa: $rsp 40 +
STACK CFI 67c1 .cfa: $rsp 32 +
STACK CFI 67c2 .cfa: $rsp 24 +
STACK CFI 67c4 .cfa: $rsp 16 +
STACK CFI 67c6 .cfa: $rsp 8 +
STACK CFI 67cb .cfa: $rsp 672 +
STACK CFI INIT 67d0 6d .cfa: $rsp 8 + .ra: .cfa -8 + ^
STACK CFI 67d2 $r12: .cfa -16 + ^ .cfa: $rsp 16 +
STACK CFI 67d6 $rbp: .cfa -24 + ^ .cfa: $rsp 24 +
STACK CFI 67de $rbx: .cfa -32 + ^ .cfa: $rsp 32 +
STACK CFI 6825 .cfa: $rsp 24 +
STACK CFI 682c .cfa: $rsp 16 +
STACK CFI 682e .cfa: $rsp 8 +
STACK CFI 6838 .cfa: $rsp 32 +
STACK CFI 6839 .cfa: $rsp 24 +
STACK CFI 683a .cfa: $rsp 16 +
STACK CFI 683c .cfa: $rsp 8 +
STACK CFI INIT 6840 41 .cfa: $rsp 8 + .ra: .cfa -8 + ^
STACK CFI 6841 $rbx: .cfa -16 + ^ .cfa: $rsp 16 +
STACK CFI 6867 .cfa: $rsp 8 +
STACK CFI 6870 .cfa: $rsp 16 +
STACK CFI 687c .cfa: $rsp 8 +
STACK CFI INIT 6890 1b5 .cfa: $rsp 8 + .ra: .cfa -8 + ^
STACK CFI 6892 $r15: .cfa -16 + ^ .cfa: $rsp 16 +
STACK CFI 689a $r14: .cfa -24 + ^ .cfa: $rsp 24 +
STACK CFI 689f $r13: .cfa -32 + ^ .cfa: $rsp 32 +
STACK CFI 68a4 $r12: .cfa -40 + ^ .cfa: $rsp 40 +
STACK CFI 68a8 $rbp: .cfa -48 + ^ .cfa: $rsp 48 +
STACK CFI 68a9 $rbx: .cfa -56 + ^ .cfa: $rsp 56 +
STACK CFI 68b0 .cfa: $rsp 192 +
STACK CFI 698d .cfa: $rsp 56 +
STACK CFI 698e .cfa: $rsp 48 +
STACK CFI 698f .cfa: $rsp 40 +
STACK CFI 6991 .cfa: $rsp 32 +
STACK CFI 6993 .cfa: $rsp 24 +
STACK CFI 6995 .cfa: $rsp 16 +
STACK CFI 6997 .cfa: $rsp 8 +
STACK CFI 6998 .cfa: $rsp 192 +
STACK CFI INIT 6a50 8 .cfa: $rsp 8 + .ra: .cfa -8 + ^
STACK CFI INIT 6f90 f9 .cfa: $rsp 8 + .ra: .cfa -8 + ^
STACK CFI 6f92 $r13: .cfa -16 + ^ .cfa: $rsp 16 +
STACK CFI 6f94 $r12: .cfa -24 + ^ .cfa: $rsp 24 +
STACK CFI 6f9b $rbp: .cfa -32 + ^ .cfa: $rsp 32 +
STACK CFI 6f9c $rbx: .cfa -40 + ^ .cfa: $rsp 40 +
STACK CFI 6fa3 .cfa: $rsp 64 +
STACK CFI 703b .cfa: $rsp 40 +
STACK CFI 703c .cfa: $rsp 32 +
STACK CFI 703d .cfa: $rsp 24 +
STACK CFI 703f .cfa: $rsp 16 +
STACK CFI 7041 .cfa: $rsp 8 +
STACK CFI 7048 .cfa: $rsp 64 +
STACK CFI INIT 6a60 35f .cfa: $rsp 8 + .ra: .cfa -8 + ^
STACK CFI 6a62 $r15: .cfa -16 + ^ .cfa: $rsp 16 +
STACK CFI 6a64 $r14: .cfa -24 + ^ .cfa: $rsp 24 +
STACK CFI 6a69 $r13: .cfa -32 + ^ .cfa: $rsp 32 +
STACK CFI 6a6f $r12: .cfa -40 + ^ .cfa: $rsp 40 +
STACK CFI 6a70 $rbp: .cfa -48 + ^ .cfa: $rsp 48 +
STACK CFI 6a71 $rbx: .cfa -56 + ^ .cfa: $rsp 56 +
STACK CFI 6a78 .cfa: $rsp 80 +
STACK CFI 6b9a .cfa: $rsp 56 +
STACK CFI 6b9b .cfa: $rsp 48 +
STACK CFI 6b9c .cfa: $rsp 40 +
STACK CFI 6b9e .cfa: $rsp 32 +
STACK CFI 6ba0 .cfa: $rsp 24 +
STACK CFI 6ba2 .cfa: $rsp 16 +
STACK CFI 6ba4 .cfa: $rsp 8 +
STACK CFI 6ba8 .cfa: $rsp 80 +
STACK CFI INIT 6dc0 1c1 .cfa: $rsp 8 + .ra: .cfa -8 + ^
STACK CFI 6dc2 $r14: .cfa -16 + ^ .cfa: $rsp 16 +
STACK CFI 6dc7 $r13: .cfa -24 + ^ .cfa: $rsp 24 +
STACK CFI 6dcc $r12: .cfa -32 + ^ .cfa: $rsp 32 +
STACK CFI 6dcd $rbp: .cfa -40 + ^ .cfa: $rsp 40 +
STACK CFI 6dd4 $rbx: .cfa -48 + ^ .cfa: $rsp 48 +
STACK CFI 6ddb .cfa: $rsp 352 +
STACK CFI 6ebe .cfa: $rsp 48 +
STACK CFI 6ebf .cfa: $rsp 40 +
STACK CFI 6ec0 .cfa: $rsp 32 +
STACK CFI 6ec2 .cfa: $rsp 24 +
STACK CFI 6ec4 .cfa: $rsp 16 +
STACK CFI 6ec6 .cfa: $rsp 8 +
STACK CFI 6ec7 .cfa: $rsp 352 +
STACK CFI INIT 7090 ab .cfa: $rsp 8 + .ra: .cfa -8 + ^
STACK CFI 7091 $rbp: .cfa -16 + ^ .cfa: $rsp 16 +
STACK CFI 7099 $rbx: .cfa -24 + ^ .cfa: $rsp 24 +
STACK CFI 70a4 .cfa: $rsp 32 +
STACK CFI 7119 .cfa: $rsp 24 +
STACK CFI 711a .cfa: $rsp 16 +
STACK CFI 711b .cfa: $rsp 8 +
STACK CFI 711c .cfa: $rsp 32 +
STACK CFI INIT 7140 2de .cfa: $rsp 8 + .ra: .cfa -8 + ^
STACK CFI 7142 $r13: .cfa -16 + ^ .cfa: $rsp 16 +
STACK CFI 7144 $r12: .cfa -24 + ^ .cfa: $rsp 24 +
STACK CFI 7145 $rbp: .cfa -32 + ^ .cfa: $rsp 32 +
STACK CFI 7146 $rbx: .cfa -40 + ^ .cfa: $rsp 40 +
STACK CFI 7150 .cfa: $rsp 176 +
STACK CFI 72e1 .cfa: $rsp 40 +
STACK CFI 72e2 .cfa: $rsp 32 +
STACK CFI 72e3 .cfa: $rsp 24 +
STACK CFI 72e5 .cfa: $rsp 16 +
STACK CFI 72e7 .cfa: $rsp 8 +
STACK CFI 72e8 .cfa: $rsp 176 +
STACK CFI INIT 7420 c6 .cfa: $rsp 8 + .ra: .cfa -8 + ^
STACK CFI 7421 $rbp: .cfa -16 + ^ .cfa: $rsp 16 +
STACK CFI 7425 $rbx: .cfa -24 + ^ .cfa: $rsp 24 +
STACK CFI 7429 .cfa: $rsp 32 +
STACK CFI 74c1 .cfa: $rsp 24 +
STACK CFI 74c5 .cfa: $rsp 16 +
STACK CFI 74c6 .cfa: $rsp 8 +
STACK CFI 74c7 .cfa: $rsp 32 +
STACK CFI INIT 74f0 34 .cfa: $rsp 8 + .ra: .cfa -8 + ^
STACK CFI 74fc $rbx: .cfa -16 + ^ .cfa: $rsp 16 +
STACK CFI 7523 .cfa: $rsp 8 +
STACK CFI INIT 9260 3f0 .cfa: $rsp 8 + .ra: .cfa -8 + ^
STACK CFI 9262 $r15: .cfa -16 + ^ .cfa: $rsp 16 +
STACK CFI 9267 $r14: .cfa -24 + ^ .cfa: $rsp 24 +
STACK CFI 9269 $r13: .cfa -32 + ^ .cfa: $rsp 32 +
STACK CFI 926b $r12: .cfa -40 + ^ .cfa: $rsp 40 +
STACK CFI 926c $rbp: .cfa -48 + ^ .cfa: $rsp 48 +
STACK CFI 926d $rbx: .cfa -56 + ^ .cfa: $rsp 56 +
STACK CFI 9274 .cfa: $rsp 96 +
STACK CFI 92fc .cfa: $rsp 56 +
STACK CFI 92fd .cfa: $rsp 48 +
STACK CFI 92fe .cfa: $rsp 40 +
STACK CFI 9300 .cfa: $rsp 32 +
STACK CFI 9302 .cfa: $rsp 24 +
STACK CFI 9304 .cfa: $rsp 16 +
STACK CFI 9306 .cfa: $rsp 8 +
STACK CFI 9310 .cfa: $rsp 96 +
STACK CFI 9380 .cfa: $rsp 56 +
STACK CFI 9387 .cfa: $rsp 48 +
STACK CFI 9388 .cfa: $rsp 40 +
STACK CFI 938a .cfa: $rsp 32 +
STACK CFI 938c .cfa: $rsp 24 +
STACK CFI 938e .cfa: $rsp 16 +
STACK CFI 9390 .cfa: $rsp 8 +
STACK CFI 9398 .cfa: $rsp 96 +
STACK CFI 9498 .cfa: $rsp 56 +
STACK CFI 9499 .cfa: $rsp 48 +
STACK CFI 949a .cfa: $rsp 40 +
STACK CFI 949c .cfa: $rsp 32 +
STACK CFI 949e .cfa: $rsp 24 +
STACK CFI 94a0 .cfa: $rsp 16 +
STACK CFI 94a2 .cfa: $rsp 8 +
STACK CFI 94a8 .cfa: $rsp 96 +
STACK CFI INIT 7530 1d29 .cfa: $rsp 8 + .ra: .cfa -8 + ^
STACK CFI 7532 $r15: .cfa -16 + ^ .cfa: $rsp 16 +
STACK CFI 7534 $r14: .cfa -24 + ^ .cfa: $rsp 24 +
STACK CFI 7539 $r13: .cfa -32 + ^ .cfa: $rsp 32 +
STACK CFI 753e $r12: .cfa -40 + ^ .cfa: $rsp 40 +
STACK CFI 7542 $rbp: .cfa -48 + ^ .cfa: $rsp 48 +
STACK CFI 7543 $rbx: .cfa -56 + ^ .cfa: $rsp 56 +
STACK CFI 754f .cfa: $rsp 4144 +
STACK CFI 75e3 .cfa: $rsp 56 +
STACK CFI 75e4 .cfa: $rsp 48 +
STACK CFI 75e5 .cfa: $rsp 40 +
STACK CFI 75e7 .cfa: $rsp 32 +
STACK CFI 75e9 .cfa: $rsp 24 +
STACK CFI 75eb .cfa: $rsp 16 +
STACK CFI 75ed .cfa: $rsp 8 +
STACK CFI 75f0 .cfa: $rsp 4144 +
STACK CFI INIT 9650 6 .cfa: $rsp 8 + .ra: .cfa -8 + ^
STACK CFI INIT 25f0 20 .cfa: $rsp 8 + .ra: .cfa -8 + ^
STACK CFI 25f8 .cfa: $rsp 16 +
STACK CFI INIT 9660 69 .cfa: $rsp 8 + .ra: .cfa -8 + ^
STACK CFI 9662 $r13: .cfa -16 + ^ .cfa: $rsp 16 +
STACK CFI 966a $r12: .cfa -24 + ^ .cfa: $rsp 24 +
STACK CFI 966e $rbp: .cfa -32 + ^ .cfa: $rsp 32 +
STACK CFI 966f $rbx: .cfa -40 + ^ .cfa: $rsp 40 +
STACK CFI 9673 .cfa: $rsp 48 +
STACK CFI 96c2 .cfa: $rsp 40 +
STACK CFI 96c3 .cfa: $rsp 32 +
STACK CFI 96c4 .cfa: $rsp 24 +
STACK CFI 96c6 .cfa: $rsp 16 +
STACK CFI 96c8 .cfa: $rsp 8 +
STACK CFI INIT 96d0 12 .cfa: $rsp 8 + .ra: .cfa -8 + ^
STACK CFI 96d1 $rbx: .cfa -16 + ^ .cfa: $rsp 16 +
STACK CFI 96dd .cfa: $rsp 8 +
STACK CFI INIT 96f0 14 .cfa: $rsp 8 + .ra: .cfa -8 + ^
STACK CFI INIT 9710 1f8 .cfa: $rsp 8 + .ra: .cfa -8 + ^
STACK CFI INIT 9910 4a .cfa: $rsp 8 + .ra: .cfa -8 + ^
STACK CFI 9911 $rbp: .cfa -16 + ^ .cfa: $rsp 16 +
STACK CFI 9915 $rbx: .cfa -24 + ^ .cfa: $rsp 24 +
STACK CFI 9921 .cfa: $rsp 32 +
STACK CFI 9955 .cfa: $rsp 24 +
STACK CFI 9958 .cfa: $rsp 16 +
STACK CFI 9959 .cfa: $rsp 8 +
STACK CFI INIT 9960 189 .cfa: $rsp 8 + .ra: .cfa -8 + ^
STACK CFI 9962 $r14: .cfa -16 + ^ .cfa: $rsp 16 +
STACK CFI 9964 $r13: .cfa -24 + ^ .cfa: $rsp 24 +
STACK CFI 996d $r12: .cfa -32 + ^ .cfa: $rsp 32 +
STACK CFI 9976 $rbp: .cfa -40 + ^ .cfa: $rsp 40 +
STACK CFI 997a $rbx: .cfa -48 + ^ .cfa: $rsp 48 +
STACK CFI 998b .cfa: $rsp 4208 +
STACK CFI 99c9 .cfa: $rsp 48 +
STACK CFI 99ca .cfa: $rsp 40 +
STACK CFI 99cb .cfa: $rsp 32 +
STACK CFI 99cd .cfa: $rsp 24 +
STACK CFI 99cf .cfa: $rsp 16 +
STACK CFI 99d1 .cfa: $rsp 8 +
STACK CFI 99d8 .cfa: $rsp 4208 +
STACK CFI INIT 9af0 e6 .cfa: $rsp 8 + .ra: .cfa -8 + ^
STACK CFI 9af2 $r15: .cfa -16 + ^ .cfa: $rsp 16 +
STACK CFI 9af7 $r14: .cfa -24 + ^ .cfa: $rsp 24 +
STACK CFI 9afc $r13: .cfa -32 + ^ .cfa: $rsp 32 +
STACK CFI 9b01 $r12: .cfa -40 + ^ .cfa: $rsp 40 +
STACK CFI 9b05 $rbp: .cfa -48 + ^ .cfa: $rsp 48 +
STACK CFI 9b0d $rbx: .cfa -56 + ^ .cfa: $rsp 56 +
STACK CFI 9b1a .cfa: $rsp 64 +
STACK CFI 9b4b .cfa: $rsp 56 +
STACK CFI 9b52 .cfa: $rsp 48 +
STACK CFI 9b53 .cfa: $rsp 40 +
STACK CFI 9b55 .cfa: $rsp 32 +
STACK CFI 9b57 .cfa: $rsp 24 +
STACK CFI 9b59 .cfa: $rsp 16 +
STACK CFI 9b5b .cfa: $rsp 8 +
STACK CFI 9b60 .cfa: $rsp 64 +
STACK CFI 9b96 .cfa: $rsp 56 +
STACK CFI 9b97 .cfa: $rsp 48 +
STACK CFI 9b98 .cfa: $rsp 40 +
STACK CFI 9b9a .cfa: $rsp 32 +
STACK CFI 9b9c .cfa: $rsp 24 +
STACK CFI 9b9e .cfa: $rsp 16 +
STACK CFI 9ba0 .cfa: $rsp 8 +
STACK CFI 9ba8 .cfa: $rsp 64 +
STACK CFI 9bbe .cfa: $rsp 56 +
STACK CFI 9bc5 .cfa: $rsp 48 +
STACK CFI 9bc6 .cfa: $rsp 40 +
STACK CFI 9bc8 .cfa: $rsp 32 +
STACK CFI 9bcd .cfa: $rsp 24 +
STACK CFI 9bcf .cfa: $rsp 16 +
STACK CFI 9bd1 .cfa: $rsp 8 +
STACK CFI INIT 9be0 131 .cfa: $rsp 8 + .ra: .cfa -8 + ^
STACK CFI 9be2 $r13: .cfa -16 + ^ .cfa: $rsp 16 +
STACK CFI 9bee $r12: .cfa -24 + ^ .cfa: $rsp 24 +
STACK CFI 9bef $rbp: .cfa -32 + ^ .cfa: $rsp 32 +
STACK CFI 9bf0 $rbx: .cfa -40 + ^ .cfa: $rsp 40 +
STACK CFI 9bf7 .cfa: $rsp 336 +
STACK CFI 9cca .cfa: $rsp 40 +
STACK CFI 9ccb .cfa: $rsp 32 +
STACK CFI 9ccc .cfa: $rsp 24 +
STACK CFI 9cce .cfa: $rsp 16 +
STACK CFI 9cd0 .cfa: $rsp 8 +
STACK CFI 9cd8 .cfa: $rsp 336 +
STACK CFI INIT 9d20 32 .cfa: $rsp 8 + .ra: .cfa -8 + ^
STACK CFI 9d21 $rbx: .cfa -16 + ^ .cfa: $rsp 16 +
STACK CFI 9d30 .cfa: $rsp 8 +
STACK CFI 9d38 .cfa: $rsp 16 +
STACK CFI 9d4c .cfa: $rsp 8 +
STACK CFI INIT 9d60 46 .cfa: $rsp 8 + .ra: .cfa -8 + ^
STACK CFI INIT 9db0 4b .cfa: $rsp 8 + .ra: .cfa -8 + ^
STACK CFI INIT 9e00 73 .cfa: $rsp 8 + .ra: .cfa -8 + ^
STACK CFI 9e02 $r14: .cfa -16 + ^ .cfa: $rsp 16 +
STACK CFI 9e07 $r13: .cfa -24 + ^ .cfa: $rsp 24 +
STACK CFI 9e0c $r12: .cfa -32 + ^ .cfa: $rsp 32 +
STACK CFI 9e10 $rbp: .cfa -40 + ^ .cfa: $rsp 40 +
STACK CFI 9e14 $rbx: .cfa -48 + ^ .cfa: $rsp 48 +
STACK CFI 9e5c .cfa: $rsp 40 +
STACK CFI 9e5d .cfa: $rsp 32 +
STACK CFI 9e5f .cfa: $rsp 24 +
STACK CFI 9e61 .cfa: $rsp 16 +
STACK CFI 9e63 .cfa: $rsp 8 +
STACK CFI 9e68 .cfa: $rsp 48 +
STACK CFI 9e69 .cfa: $rsp 40 +
STACK CFI 9e6a .cfa: $rsp 32 +
STACK CFI 9e6c .cfa: $rsp 24 +
STACK CFI 9e6e .cfa: $rsp 16 +
STACK CFI 9e72 .cfa: $rsp 8 +
STACK CFI INIT 9e80 43 .cfa: $rsp 8 + .ra: .cfa -8 + ^
STACK CFI INIT 9ed0 1fc .cfa: $rsp 8 + .ra: .cfa -8 + ^
STACK CFI 9ed2 $r15: .cfa -16 + ^ .cfa: $rsp 16 +
STACK CFI 9ed4 $r14: .cfa -24 + ^ .cfa: $rsp 24 +
STACK CFI 9ed6 $r13: .cfa -32 + ^ .cfa: $rsp 32 +
STACK CFI 9ede $r12: .cfa -40 + ^ .cfa: $rsp 40 +
STACK CFI 9ee2 $rbp: .cfa -48 + ^ .cfa: $rsp 48 +
STACK CFI 9ee6 $rbx: .cfa -56 + ^ .cfa: $rsp 56 +
STACK CFI 9ef0 .cfa: $rsp 352 +
STACK CFI a06c .cfa: $rsp 56 +
STACK CFI a06d .cfa: $rsp 48 +
STACK CFI a06e .cfa: $rsp 40 +
STACK CFI a070 .cfa: $rsp 32 +
STACK CFI a072 .cfa: $rsp 24 +
STACK CFI a074 .cfa: $rsp 16 +
STACK CFI a076 .cfa: $rsp 8 +
STACK CFI a080 .cfa: $rsp 352 +
STACK CFI INIT a0d0 224 .cfa: $rsp 8 + .ra: .cfa -8 + ^
STACK CFI a0d2 $r14: .cfa -16 + ^ .cfa: $rsp 16 +
STACK CFI a0d4 $r13: .cfa -24 + ^ .cfa: $rsp 24 +
STACK CFI a0d6 $r12: .cfa -32 + ^ .cfa: $rsp 32 +
STACK CFI a0d7 $rbp: .cfa -40 + ^ .cfa: $rsp 40 +
STACK CFI a0de $rbx: .cfa -48 + ^ .cfa: $rsp 48 +
STACK CFI a0e8 .cfa: $rsp 5008 +
STACK CFI a128 .cfa: $rsp 48 +
STACK CFI a129 .cfa: $rsp 40 +
STACK CFI a12a .cfa: $rsp 32 +
STACK CFI a12c .cfa: $rsp 24 +
STACK CFI a12e .cfa: $rsp 16 +
STACK CFI a130 .cfa: $rsp 8 +
STACK CFI a138 .cfa: $rsp 5008 +
STACK CFI INIT a300 323 .cfa: $rsp 8 + .ra: .cfa -8 + ^
STACK CFI a302 $r15: .cfa -16 + ^ .cfa: $rsp 16 +
STACK CFI a307 $r14: .cfa -24 + ^ .cfa: $rsp 24 +
STACK CFI a30c $r13: .cfa -32 + ^ .cfa: $rsp 32 +
STACK CFI a311 $r12: .cfa -40 + ^ .cfa: $rsp 40 +
STACK CFI a312 $rbp: .cfa -48 + ^ .cfa: $rsp 48 +
STACK CFI a316 $rbx: .cfa -56 + ^ .cfa: $rsp 56 +
STACK CFI a320 .cfa: $rsp 4208 +
STACK CFI a395 .cfa: $rsp 56 +
STACK CFI a396 .cfa: $rsp 48 +
STACK CFI a397 .cfa: $rsp 40 +
STACK CFI a399 .cfa: $rsp 32 +
STACK CFI a39b .cfa: $rsp 24 +
STACK CFI a39d .cfa: $rsp 16 +
STACK CFI a39f .cfa: $rsp 8 +
STACK CFI a3a0 .cfa: $rsp 4208 +
STACK CFI INIT b440 2a2 .cfa: $rsp 8 + .ra: .cfa -8 + ^
STACK CFI b442 $r15: .cfa -16 + ^ .cfa: $rsp 16 +
STACK CFI b444 $r14: .cfa -24 + ^ .cfa: $rsp 24 +
STACK CFI b446 $r13: .cfa -32 + ^ .cfa: $rsp 32 +
STACK CFI b448 $r12: .cfa -40 + ^ .cfa: $rsp 40 +
STACK CFI b449 $rbp: .cfa -48 + ^ .cfa: $rsp 48 +
STACK CFI b44a $rbx: .cfa -56 + ^ .cfa: $rsp 56 +
STACK CFI b451 .cfa: $rsp 80 +
STACK CFI b49a .cfa: $rsp 56 +
STACK CFI b49b .cfa: $rsp 48 +
STACK CFI b49c .cfa: $rsp 40 +
STACK CFI b49e .cfa: $rsp 32 +
STACK CFI b4a0 .cfa: $rsp 24 +
STACK CFI b4a2 .cfa: $rsp 16 +
STACK CFI b4a4 .cfa: $rsp 8 +
STACK CFI b4a8 .cfa: $rsp 80 +
STACK CFI b56d .cfa: $rsp 56 +
STACK CFI b56e .cfa: $rsp 48 +
STACK CFI b56f .cfa: $rsp 40 +
STACK CFI b571 .cfa: $rsp 32 +
STACK CFI b573 .cfa: $rsp 24 +
STACK CFI b575 .cfa: $rsp 16 +
STACK CFI b577 .cfa: $rsp 8 +
STACK CFI b580 .cfa: $rsp 80 +
STACK CFI INIT a630 601 .cfa: $rsp 8 + .ra: .cfa -8 + ^
STACK CFI a632 $r15: .cfa -16 + ^ .cfa: $rsp 16 +
STACK CFI a63b $r14: .cfa -24 + ^ .cfa: $rsp 24 +
STACK CFI a643 $r13: .cfa -32 + ^ .cfa: $rsp 32 +
STACK CFI a645 $r12: .cfa -40 + ^ .cfa: $rsp 40 +
STACK CFI a646 $rbp: .cfa -48 + ^ .cfa: $rsp 48 +
STACK CFI a647 $rbx: .cfa -56 + ^ .cfa: $rsp 56 +
STACK CFI a652 .cfa: $rsp 64 +
STACK CFI a8a8 .cfa: $rsp 56 +
STACK CFI a8a9 .cfa: $rsp 48 +
STACK CFI a8aa .cfa: $rsp 40 +
STACK CFI a8ac .cfa: $rsp 32 +
STACK CFI a8ae .cfa: $rsp 24 +
STACK CFI a8b0 .cfa: $rsp 16 +
STACK CFI a8b2 .cfa: $rsp 8 +
STACK CFI a8b8 .cfa: $rsp 64 +
STACK CFI a8cc .cfa: $rsp 56 +
STACK CFI a8cd .cfa: $rsp 48 +
STACK CFI a8ce .cfa: $rsp 40 +
STACK CFI a8d0 .cfa: $rsp 32 +
STACK CFI a8d2 .cfa: $rsp 24 +
STACK CFI a8d4 .cfa: $rsp 16 +
STACK CFI a8d6 .cfa: $rsp 8 +
STACK CFI a8e0 .cfa: $rsp 64 +
STACK CFI INIT b6f0 219 .cfa: $rsp 8 + .ra: .cfa -8 + ^
STACK CFI b6f2 $r15: .cfa -16 + ^ .cfa: $rsp 16 +
STACK CFI b6f4 $r14: .cfa -24 + ^ .cfa: $rsp 24 +
STACK CFI b6f6 $r13: .cfa -32 + ^ .cfa: $rsp 32 +
STACK CFI b6f8 $r12: .cfa -40 + ^ .cfa: $rsp 40 +
STACK CFI b6fc $rbp: .cfa -48 + ^ .cfa: $rsp 48 +
STACK CFI b702 $rbx: .cfa -56 + ^ .cfa: $rsp 56 +
STACK CFI b709 .cfa: $rsp 80 +
STACK CFI b7a3 .cfa: $rsp 56 +
STACK CFI b7a4 .cfa: $rsp 48 +
STACK CFI b7a5 .cfa: $rsp 40 +
STACK CFI b7a7 .cfa: $rsp 32 +
STACK CFI b7a9 .cfa: $rsp 24 +
STACK CFI b7ab .cfa: $rsp 16 +
STACK CFI b7ad .cfa: $rsp 8 +
STACK CFI b7b0 .cfa: $rsp 80 +
STACK CFI INIT ac40 7fd .cfa: $rsp 8 + .ra: .cfa -8 + ^
STACK CFI ac42 $r15: .cfa -16 + ^ .cfa: $rsp 16 +
STACK CFI ac4b $r14: .cfa -24 + ^ .cfa: $rsp 24 +
STACK CFI ac50 $r13: .cfa -32 + ^ .cfa: $rsp 32 +
STACK CFI ac52 $r12: .cfa -40 + ^ .cfa: $rsp 40 +
STACK CFI ac53 $rbp: .cfa -48 + ^ .cfa: $rsp 48 +
STACK CFI ac54 $rbx: .cfa -56 + ^ .cfa: $rsp 56 +
STACK CFI ac5b .cfa: $rsp 464 +
STACK CFI ae54 .cfa: $rsp 56 +
STACK CFI ae55 .cfa: $rsp 48 +
STACK CFI ae56 .cfa: $rsp 40 +
STACK CFI ae58 .cfa: $rsp 32 +
STACK CFI ae5a .cfa: $rsp 24 +
STACK CFI ae5c .cfa: $rsp 16 +
STACK CFI ae5e .cfa: $rsp 8 +
STACK CFI ae5f .cfa: $rsp 464 +
STACK CFI INIT b910 3 .cfa: $rsp 8 + .ra: .cfa -8 + ^
STACK CFI INIT b920 bc .cfa: $rsp 8 + .ra: .cfa -8 + ^
STACK CFI b922 $r15: .cfa -16 + ^ .cfa: $rsp 16 +
STACK CFI b924 $r14: .cfa -24 + ^ .cfa: $rsp 24 +
STACK CFI b926 $r13: .cfa -32 + ^ .cfa: $rsp 32 +
STACK CFI b928 $r12: .cfa -40 + ^ .cfa: $rsp 40 +
STACK CFI b929 $rbp: .cfa -48 + ^ .cfa: $rsp 48 +
STACK CFI b92a $rbx: .cfa -56 + ^ .cfa: $rsp 56 +
STACK CFI b931 .cfa: $rsp 96 +
STACK CFI b9cc .cfa: $rsp 56 +
STACK CFI b9d2 .cfa: $rsp 48 +
STACK CFI b9d3 .cfa: $rsp 40 +
STACK CFI b9d5 .cfa: $rsp 32 +
STACK CFI b9d7 .cfa: $rsp 24 +
STACK CFI b9d9 .cfa: $rsp 16 +
STACK CFI b9db .cfa: $rsp 8 +
STACK CFI INIT c820 13 .cfa: $rsp 8 + .ra: .cfa -8 + ^
STACK CFI INIT c840 20 .cfa: $rsp 8 + .ra: .cfa -8 + ^
STACK CFI c848 $rbx: .cfa -16 + ^ .cfa: $rsp 16 +
STACK CFI c85b .cfa: $rsp 8 +
STACK CFI INIT b9e0 c8 .cfa: $rsp 8 + .ra: .cfa -8 + ^
STACK CFI b9e2 $r15: .cfa -16 + ^ .cfa: $rsp 16 +
STACK CFI b9e4 $r14: .cfa -24 + ^ .cfa: $rsp 24 +
STACK CFI b9e6 $r13: .cfa -32 + ^ .cfa: $rsp 32 +
STACK CFI b9e8 $r12: .cfa -40 + ^ .cfa: $rsp 40 +
STACK CFI b9ec $rbp: .cfa -48 + ^ .cfa: $rsp 48 +
STACK CFI b9f0 $rbx: .cfa -56 + ^ .cfa: $rsp 56 +
STACK CFI b9f4 .cfa: $rsp 80 +
STACK CFI ba23 .cfa: $rsp 56 +
STACK CFI ba26 .cfa: $rsp 48 +
STACK CFI ba27 .cfa: $rsp 40 +
STACK CFI ba29 .cfa: $rsp 32 +
STACK CFI ba2b .cfa: $rsp 24 +
STACK CFI ba2d .cfa: $rsp 16 +
STACK CFI ba2f .cfa: $rsp 8 +
STACK CFI ba30 .cfa: $rsp 80 +
STACK CFI INIT bab0 ba .cfa: $rsp 8 + .ra: .cfa -8 + ^
STACK CFI bab2 $r15: .cfa -16 + ^ .cfa: $rsp 16 +
STACK CFI bab4 $r14: .cfa -24 + ^ .cfa: $rsp 24 +
STACK CFI bab9 $r13: .cfa -32 + ^ .cfa: $rsp 32 +
STACK CFI babb $r12: .cfa -40 + ^ .cfa: $rsp 40 +
STACK CFI babc $rbp: .cfa -48 + ^ .cfa: $rsp 48 +
STACK CFI babd $rbx: .cfa -56 + ^ .cfa: $rsp 56 +
STACK CFI bac1 .cfa: $rsp 64 +
STACK CFI bb5f .cfa: $rsp 56 +
STACK CFI bb60 .cfa: $rsp 48 +
STACK CFI bb61 .cfa: $rsp 40 +
STACK CFI bb63 .cfa: $rsp 32 +
STACK CFI bb65 .cfa: $rsp 24 +
STACK CFI bb67 .cfa: $rsp 16 +
STACK CFI bb69 .cfa: $rsp 8 +
STACK CFI INIT bb70 27 .cfa: $rsp 8 + .ra: .cfa -8 + ^
STACK CFI bb71 $rbx: .cfa -16 + ^ .cfa: $rsp 16 +
STACK CFI bb96 .cfa: $rsp 8 +
STACK CFI INIT bba0 d4 .cfa: $rsp 8 + .ra: .cfa -8 + ^
STACK CFI bba2 $r15: .cfa -16 + ^ .cfa: $rsp 16 +
STACK CFI bba4 $r14: .cfa -24 + ^ .cfa: $rsp 24 +
STACK CFI bbac $r13: .cfa -32 + ^ .cfa: $rsp 32 +
STACK CFI bbb1 $r12: .cfa -40 + ^ .cfa: $rsp 40 +
STACK CFI bbb8 $rbp: .cfa -48 + ^ .cfa: $rsp 48 +
STACK CFI bbbe $rbx: .cfa -56 + ^ .cfa: $rsp 56 +
STACK CFI bbc2 .cfa: $rsp 96 +
STACK CFI bc07 .cfa: $rsp 56 +
STACK CFI bc0a .cfa: $rsp 48 +
STACK CFI bc0b .cfa: $rsp 40 +
STACK CFI bc0d .cfa: $rsp 32 +
STACK CFI bc0f .cfa: $rsp 24 +
STACK CFI bc11 .cfa: $rsp 16 +
STACK CFI bc13 .cfa: $rsp 8 +
STACK CFI bc18 .cfa: $rsp 96 +
STACK CFI bc50 .cfa: $rsp 56 +
STACK CFI bc53 .cfa: $rsp 48 +
STACK CFI bc54 .cfa: $rsp 40 +
STACK CFI bc56 .cfa: $rsp 32 +
STACK CFI bc58 .cfa: $rsp 24 +
STACK CFI bc5a .cfa: $rsp 16 +
STACK CFI bc5c .cfa: $rsp 8 +
STACK CFI bc60 .cfa: $rsp 96 +
STACK CFI bc64 .cfa: $rsp 56 +
STACK CFI bc6a .cfa: $rsp 48 +
STACK CFI bc6b .cfa: $rsp 40 +
STACK CFI bc6d .cfa: $rsp 32 +
STACK CFI bc6f .cfa: $rsp 24 +
STACK CFI bc71 .cfa: $rsp 16 +
STACK CFI bc73 .cfa: $rsp 8 +
STACK CFI INIT bc80 ca .cfa: $rsp 8 + .ra: .cfa -8 + ^
STACK CFI bc82 $r14: .cfa -16 + ^ .cfa: $rsp 16 +
STACK CFI bc84 $r13: .cfa -24 + ^ .cfa: $rsp 24 +
STACK CFI bc8c $r12: .cfa -32 + ^ .cfa: $rsp 32 +
STACK CFI bc90 $rbp: .cfa -40 + ^ .cfa: $rsp 40 +
STACK CFI bc96 $rbx: .cfa -48 + ^ .cfa: $rsp 48 +
STACK CFI bc9f .cfa: $rsp 64 +
STACK CFI bcd7 .cfa: $rsp 48 +
STACK CFI bcda .cfa: $rsp 40 +
STACK CFI bcdb .cfa: $rsp 32 +
STACK CFI bcdd .cfa: $rsp 24 +
STACK CFI bcdf .cfa: $rsp 16 +
STACK CFI bce1 .cfa: $rsp 8 +
STACK CFI bce8 .cfa: $rsp 64 +
STACK CFI bd26 .cfa: $rsp 48 +
STACK CFI bd29 .cfa: $rsp 40 +
STACK CFI bd2a .cfa: $rsp 32 +
STACK CFI bd2c .cfa: $rsp 24 +
STACK CFI bd2e .cfa: $rsp 16 +
STACK CFI bd30 .cfa: $rsp 8 +
STACK CFI bd38 .cfa: $rsp 64 +
STACK CFI bd3c .cfa: $rsp 48 +
STACK CFI bd42 .cfa: $rsp 40 +
STACK CFI bd43 .cfa: $rsp 32 +
STACK CFI bd45 .cfa: $rsp 24 +
STACK CFI bd47 .cfa: $rsp 16 +
STACK CFI bd49 .cfa: $rsp 8 +
STACK CFI INIT bd50 4ed .cfa: $rsp 8 + .ra: .cfa -8 + ^
STACK CFI bd52 $r15: .cfa -16 + ^ .cfa: $rsp 16 +
STACK CFI bd54 $r14: .cfa -24 + ^ .cfa: $rsp 24 +
STACK CFI bd56 $r13: .cfa -32 + ^ .cfa: $rsp 32 +
STACK CFI bd58 $r12: .cfa -40 + ^ .cfa: $rsp 40 +
STACK CFI bd59 $rbp: .cfa -48 + ^ .cfa: $rsp 48 +
STACK CFI bd5a $rbx: .cfa -56 + ^ .cfa: $rsp 56 +
STACK CFI bd64 .cfa: $rsp 384 +
STACK CFI bf80 .cfa: $rsp 56 +
STACK CFI bf81 .cfa: $rsp 48 +
STACK CFI bf82 .cfa: $rsp 40 +
STACK CFI bf84 .cfa: $rsp 32 +
STACK CFI bf86 .cfa: $rsp 24 +
STACK CFI bf88 .cfa: $rsp 16 +
STACK CFI bf8a .cfa: $rsp 8 +
STACK CFI bf90 .cfa: $rsp 384 +
STACK CFI INIT c860 2a2 .cfa: $rsp 8 + .ra: .cfa -8 + ^
STACK CFI c862 $r15: .cfa -16 + ^ .cfa: $rsp 16 +
STACK CFI c864 $r14: .cfa -24 + ^ .cfa: $rsp 24 +
STACK CFI c866 $r13: .cfa -32 + ^ .cfa: $rsp 32 +
STACK CFI c868 $r12: .cfa -40 + ^ .cfa: $rsp 40 +
STACK CFI c869 $rbp: .cfa -48 + ^ .cfa: $rsp 48 +
STACK CFI c86a $rbx: .cfa -56 + ^ .cfa: $rsp 56 +
STACK CFI c871 .cfa: $rsp 80 +
STACK CFI c8b9 .cfa: $rsp 56 +
STACK CFI c8ba .cfa: $rsp 48 +
STACK CFI c8bb .cfa: $rsp 40 +
STACK CFI c8bd .cfa: $rsp 32 +
STACK CFI c8bf .cfa: $rsp 24 +
STACK CFI c8c1 .cfa: $rsp 16 +
STACK CFI c8c3 .cfa: $rsp 8 +
STACK CFI c8c8 .cfa: $rsp 80 +
STACK CFI c98c .cfa: $rsp 56 +
STACK CFI c98d .cfa: $rsp 48 +
STACK CFI c98e .cfa: $rsp 40 +
STACK CFI c990 .cfa: $rsp 32 +
STACK CFI c992 .cfa: $rsp 24 +
STACK CFI c994 .cfa: $rsp 16 +
STACK CFI c996 .cfa: $rsp 8 +
STACK CFI c9a0 .cfa: $rsp 80 +
STACK CFI INIT c240 251 .cfa: $rsp 8 + .ra: .cfa -8 + ^
STACK CFI c242 $r15: .cfa -16 + ^ .cfa: $rsp 16 +
STACK CFI c244 $r14: .cfa -24 + ^ .cfa: $rsp 24 +
STACK CFI c249 $r13: .cfa -32 + ^ .cfa: $rsp 32 +
STACK CFI c24b $r12: .cfa -40 + ^ .cfa: $rsp 40 +
STACK CFI c24c $rbp: .cfa -48 + ^ .cfa: $rsp 48 +
STACK CFI c24d $rbx: .cfa -56 + ^ .cfa: $rsp 56 +
STACK CFI c254 .cfa: $rsp 304 +
STACK CFI c3b5 .cfa: $rsp 56 +
STACK CFI c3b6 .cfa: $rsp 48 +
STACK CFI c3b7 .cfa: $rsp 40 +
STACK CFI c3b9 .cfa: $rsp 32 +
STACK CFI c3bb .cfa: $rsp 24 +
STACK CFI c3bd .cfa: $rsp 16 +
STACK CFI c3bf .cfa: $rsp 8 +
STACK CFI c3c0 .cfa: $rsp 304 +
STACK CFI INIT cb10 21a .cfa: $rsp 8 + .ra: .cfa -8 + ^
STACK CFI cb12 $r15: .cfa -16 + ^ .cfa: $rsp 16 +
STACK CFI cb14 $r14: .cfa -24 + ^ .cfa: $rsp 24 +
STACK CFI cb16 $r13: .cfa -32 + ^ .cfa: $rsp 32 +
STACK CFI cb18 $r12: .cfa -40 + ^ .cfa: $rsp 40 +
STACK CFI cb1c $rbp: .cfa -48 + ^ .cfa: $rsp 48 +
STACK CFI cb22 $rbx: .cfa -56 + ^ .cfa: $rsp 56 +
STACK CFI cb29 .cfa: $rsp 80 +
STACK CFI cbb9 .cfa: $rsp 56 +
STACK CFI cbba .cfa: $rsp 48 +
STACK CFI cbbb .cfa: $rsp 40 +
STACK CFI cbbd .cfa: $rsp 32 +
STACK CFI cbbf .cfa: $rsp 24 +
STACK CFI cbc1 .cfa: $rsp 16 +
STACK CFI cbc3 .cfa: $rsp 8 +
STACK CFI cbc8 .cfa: $rsp 80 +
STACK CFI INIT c4a0 37d .cfa: $rsp 8 + .ra: .cfa -8 + ^
STACK CFI c4a2 $r15: .cfa -16 + ^ .cfa: $rsp 16 +
STACK CFI c4ab $r14: .cfa -24 + ^ .cfa: $rsp 24 +
STACK CFI c4ad $r13: .cfa -32 + ^ .cfa: $rsp 32 +
STACK CFI c4af $r12: .cfa -40 + ^ .cfa: $rsp 40 +
STACK CFI c4b0 $rbp: .cfa -48 + ^ .cfa: $rsp 48 +
STACK CFI c4b1 $rbx: .cfa -56 + ^ .cfa: $rsp 56 +
STACK CFI c4bb .cfa: $rsp 384 +
STACK CFI c617 .cfa: $rsp 56 +
STACK CFI c618 .cfa: $rsp 48 +
STACK CFI c619 .cfa: $rsp 40 +
STACK CFI c61b .cfa: $rsp 32 +
STACK CFI c61d .cfa: $rsp 24 +
STACK CFI c61f .cfa: $rsp 16 +
STACK CFI c621 .cfa: $rsp 8 +
STACK CFI c628 .cfa: $rsp 384 +
STACK CFI INIT cd30 3a .cfa: $rsp 8 + .ra: .cfa -8 + ^
STACK CFI cd31 $rbp: .cfa -16 + ^ .cfa: $rsp 16 +
STACK CFI cd36 $rbx: .cfa -24 + ^ .cfa: $rsp 24 +
STACK CFI cd3d .cfa: $rsp 32 +
STACK CFI cd50 .cfa: $rsp 24 +
STACK CFI cd54 .cfa: $rsp 16 +
STACK CFI cd55 .cfa: $rsp 8 +
STACK CFI cd60 .cfa: $rsp 32 +
STACK CFI INIT 2610 20 .cfa: $rsp 8 + .ra: .cfa -8 + ^
STACK CFI 2618 .cfa: $rsp 16 +
STACK CFI INIT 2630 1d .cfa: $rsp 8 + .ra: .cfa -8 + ^
STACK CFI 2636 .cfa: $rsp 16 +
STACK CFI 263b .cfa: $rsp 8 +
STACK CFI INIT 264e 20 .cfa: $rsp 8 + .ra: .cfa -8 + ^
STACK CFI 2656 .cfa: $rsp 16 +
STACK CFI INIT 266e 20 .cfa: $rsp 8 + .ra: .cfa -8 + ^
STACK CFI 2676 .cfa: $rsp 16 +
STACK CFI INIT 11100 147 .cfa: $rsp 8 + .ra: .cfa -8 + ^
STACK CFI 11102 $r15: .cfa -16 + ^ .cfa: $rsp 16 +
STACK CFI 11104 $r14: .cfa -24 + ^ .cfa: $rsp 24 +
STACK CFI 11106 $r13: .cfa -32 + ^ .cfa: $rsp 32 +
STACK CFI 11108 $r12: .cfa -40 + ^ .cfa: $rsp 40 +
STACK CFI 11109 $rbp: .cfa -48 + ^ .cfa: $rsp 48 +
STACK CFI 1110d $rbx: .cfa -56 + ^ .cfa: $rsp 56 +
STACK CFI 11111 .cfa: $rsp 64 +
STACK CFI 1114f .cfa: $rsp 56 +
STACK CFI 11150 .cfa: $rsp 48 +
STACK CFI 11151 .cfa: $rsp 40 +
STACK CFI 11153 .cfa: $rsp 32 +
STACK CFI 11155 .cfa: $rsp 24 +
STACK CFI 11157 .cfa: $rsp 16 +
STACK CFI 11159 .cfa: $rsp 8 +
STACK CFI 11160 .cfa: $rsp 64 +
STACK CFI 111b1 .cfa: $rsp 56 +
STACK CFI 111b4 .cfa: $rsp 48 +
STACK CFI 111b5 .cfa: $rsp 40 +
STACK CFI 111b7 .cfa: $rsp 32 +
STACK CFI 111b9 .cfa: $rsp 24 +
STACK CFI 111bb .cfa: $rsp 16 +
STACK CFI 111bd .cfa: $rsp 8 +
STACK CFI 111c0 .cfa: $rsp 64 +
STACK CFI 11211 .cfa: $rsp 56 +
STACK CFI 11217 .cfa: $rsp 48 +
STACK CFI 11218 .cfa: $rsp 40 +
STACK CFI 1121a .cfa: $rsp 32 +
STACK CFI 1121c .cfa: $rsp 24 +
STACK CFI 1121e .cfa: $rsp 16 +
STACK CFI 11220 .cfa: $rsp 8 +
STACK CFI 11228 .cfa: $rsp 64 +
STACK CFI 1123c .cfa: $rsp 56 +
STACK CFI 1123d .cfa: $rsp 48 +
STACK CFI 1123e .cfa: $rsp 40 +
STACK CFI 11240 .cfa: $rsp 32 +
STACK CFI 11242 .cfa: $rsp 24 +
STACK CFI 11244 .cfa: $rsp 16 +
STACK CFI 11246 .cfa: $rsp 8 +
STACK CFI INIT 268e 1cb .cfa: $rsp 8 + .ra: .cfa -8 + ^
STACK CFI 2690 $r15: .cfa -16 + ^ .cfa: $rsp 16 +
STACK CFI 2692 $r14: .cfa -24 + ^ .cfa: $rsp 24 +
STACK CFI 2694 $r13: .cfa -32 + ^ .cfa: $rsp 32 +
STACK CFI 26a1 $r12: .cfa -40 + ^ .cfa: $rsp 40 +
STACK CFI 26a4 $rbp: .cfa -48 + ^ .cfa: $rsp 48 +
STACK CFI 26a5 $rbx: .cfa -56 + ^ .cfa: $rsp 56 +
STACK CFI 26a9 .cfa: $rsp 112 +
STACK CFI 284c .cfa: $rsp 56 +
STACK CFI 284f .cfa: $rsp 48 +
STACK CFI 2850 .cfa: $rsp 40 +
STACK CFI 2852 .cfa: $rsp 32 +
STACK CFI 2854 .cfa: $rsp 24 +
STACK CFI 2856 .cfa: $rsp 16 +
STACK CFI 2858 .cfa: $rsp 8 +
STACK CFI INIT 285a 68 .cfa: $rsp 8 + .ra: .cfa -8 + ^
STACK CFI 285c $r12: .cfa -16 + ^ .cfa: $rsp 16 +
STACK CFI 2860 $rbp: .cfa -24 + ^ .cfa: $rsp 24 +
STACK CFI 2861 $rbx: .cfa -32 + ^ .cfa: $rsp 32 +
STACK CFI 286b .cfa: $rsp 304 +
STACK CFI 28bd .cfa: $rsp 32 +
STACK CFI 28be .cfa: $rsp 24 +
STACK CFI 28bf .cfa: $rsp 16 +
STACK CFI 28c1 .cfa: $rsp 8 +
STACK CFI INIT 11250 22 .cfa: $rsp 8 + .ra: .cfa -8 + ^
STACK CFI INIT 11280 22 .cfa: $rsp 8 + .ra: .cfa -8 + ^
STACK CFI INIT 112b0 22 .cfa: $rsp 8 + .ra: .cfa -8 + ^
STACK CFI INIT 112e0 22 .cfa: $rsp 8 + .ra: .cfa -8 + ^
STACK CFI INIT 11310 231 .cfa: $rsp 8 + .ra: .cfa -8 + ^
STACK CFI 11312 $r15: .cfa -16 + ^ .cfa: $rsp 16 +
STACK CFI 11314 $r14: .cfa -24 + ^ .cfa: $rsp 24 +
STACK CFI 11316 $r13: .cfa -32 + ^ .cfa: $rsp 32 +
STACK CFI 1131b $r12: .cfa -40 + ^ .cfa: $rsp 40 +
STACK CFI 1131c $rbp: .cfa -48 + ^ .cfa: $rsp 48 +
STACK CFI 11322 $rbx: .cfa -56 + ^ .cfa: $rsp 56 +
STACK CFI 11329 .cfa: $rsp 80 +
STACK CFI 113d3 .cfa: $rsp 56 +
STACK CFI 113d4 .cfa: $rsp 48 +
STACK CFI 113d5 .cfa: $rsp 40 +
STACK CFI 113d7 .cfa: $rsp 32 +
STACK CFI 113d9 .cfa: $rsp 24 +
STACK CFI 113db .cfa: $rsp 16 +
STACK CFI 113dd .cfa: $rsp 8 +
STACK CFI 113e0 .cfa: $rsp 80 +
STACK CFI INIT cd70 e22 .cfa: $rsp 8 + .ra: .cfa -8 + ^
STACK CFI cd72 $r15: .cfa -16 + ^ .cfa: $rsp 16 +
STACK CFI cd74 $r14: .cfa -24 + ^ .cfa: $rsp 24 +
STACK CFI cd76 $r13: .cfa -32 + ^ .cfa: $rsp 32 +
STACK CFI cd78 $r12: .cfa -40 + ^ .cfa: $rsp 40 +
STACK CFI cd79 $rbp: .cfa -48 + ^ .cfa: $rsp 48 +
STACK CFI cd7a $rbx: .cfa -56 + ^ .cfa: $rsp 56 +
STACK CFI cd84 .cfa: $rsp 2416 +
STACK CFI d134 .cfa: $rsp 56 +
STACK CFI d135 .cfa: $rsp 48 +
STACK CFI d136 .cfa: $rsp 40 +
STACK CFI d138 .cfa: $rsp 32 +
STACK CFI d13a .cfa: $rsp 24 +
STACK CFI d13c .cfa: $rsp 16 +
STACK CFI d13e .cfa: $rsp 8 +
STACK CFI d13f .cfa: $rsp 2416 +
STACK CFI INIT 11550 1df .cfa: $rsp 8 + .ra: .cfa -8 + ^
STACK CFI 11552 $r15: .cfa -16 + ^ .cfa: $rsp 16 +
STACK CFI 11554 $r14: .cfa -24 + ^ .cfa: $rsp 24 +
STACK CFI 11556 $r13: .cfa -32 + ^ .cfa: $rsp 32 +
STACK CFI 11558 $r12: .cfa -40 + ^ .cfa: $rsp 40 +
STACK CFI 1155c $rbp: .cfa -48 + ^ .cfa: $rsp 48 +
STACK CFI 1155d $rbx: .cfa -56 + ^ .cfa: $rsp 56 +
STACK CFI 11564 .cfa: $rsp 96 +
STACK CFI 11578 .cfa: $rsp 56 +
STACK CFI 11579 .cfa: $rsp 48 +
STACK CFI 1157a .cfa: $rsp 40 +
STACK CFI 1157c .cfa: $rsp 32 +
STACK CFI 1157e .cfa: $rsp 24 +
STACK CFI 11580 .cfa: $rsp 16 +
STACK CFI 11582 .cfa: $rsp 8 +
STACK CFI 11588 .cfa: $rsp 96 +
STACK CFI 115e9 .cfa: $rsp 56 +
STACK CFI 115ea .cfa: $rsp 48 +
STACK CFI 115eb .cfa: $rsp 40 +
STACK CFI 115ed .cfa: $rsp 32 +
STACK CFI 115ef .cfa: $rsp 24 +
STACK CFI 115f1 .cfa: $rsp 16 +
STACK CFI 115f3 .cfa: $rsp 8 +
STACK CFI 115f8 .cfa: $rsp 96 +
STACK CFI INIT 11730 244 .cfa: $rsp 8 + .ra: .cfa -8 + ^
STACK CFI 11732 $r15: .cfa -16 + ^ .cfa: $rsp 16 +
STACK CFI 11734 $r14: .cfa -24 + ^ .cfa: $rsp 24 +
STACK CFI 11736 $r13: .cfa -32 + ^ .cfa: $rsp 32 +
STACK CFI 11738 $r12: .cfa -40 + ^ .cfa: $rsp 40 +
STACK CFI 11739 $rbp: .cfa -48 + ^ .cfa: $rsp 48 +
STACK CFI 1173a $rbx: .cfa -56 + ^ .cfa: $rsp 56 +
STACK CFI 11741 .cfa: $rsp 80 +
STACK CFI 11779 .cfa: $rsp 56 +
STACK CFI 1177a .cfa: $rsp 48 +
STACK CFI 1177b .cfa: $rsp 40 +
STACK CFI 1177d .cfa: $rsp 32 +
STACK CFI 1177f .cfa: $rsp 24 +
STACK CFI 11781 .cfa: $rsp 16 +
STACK CFI 11783 .cfa: $rsp 8 +
STACK CFI 11788 .cfa: $rsp 80 +
STACK CFI 11824 .cfa: $rsp 56 +
STACK CFI 11825 .cfa: $rsp 48 +
STACK CFI 11826 .cfa: $rsp 40 +
STACK CFI 11828 .cfa: $rsp 32 +
STACK CFI 1182a .cfa: $rsp 24 +
STACK CFI 1182c .cfa: $rsp 16 +
STACK CFI 1182e .cfa: $rsp 8 +
STACK CFI 11830 .cfa: $rsp 80 +
STACK CFI INIT dba0 21e6 .cfa: $rsp 8 + .ra: .cfa -8 + ^
STACK CFI dba2 $r15: .cfa -16 + ^ .cfa: $rsp 16 +
STACK CFI dbac $r14: .cfa -24 + ^ .cfa: $rsp 24 +
STACK CFI dbae $r13: .cfa -32 + ^ .cfa: $rsp 32 +
STACK CFI dbb0 $r12: .cfa -40 + ^ .cfa: $rsp 40 +
STACK CFI dbb1 $rbp: .cfa -48 + ^ .cfa: $rsp 48 +
STACK CFI dbb2 $rbx: .cfa -56 + ^ .cfa: $rsp 56 +
STACK CFI dbb9 .cfa: $rsp 3376 +
STACK CFI dd36 .cfa: $rsp 56 +
STACK CFI dd37 .cfa: $rsp 48 +
STACK CFI dd38 .cfa: $rsp 40 +
STACK CFI dd3a .cfa: $rsp 32 +
STACK CFI dd3c .cfa: $rsp 24 +
STACK CFI dd3e .cfa: $rsp 16 +
STACK CFI dd40 .cfa: $rsp 8 +
STACK CFI dd48 .cfa: $rsp 3376 +
STACK CFI INIT fd90 53b .cfa: $rsp 8 + .ra: .cfa -8 + ^
STACK CFI fd92 $r15: .cfa -16 + ^ .cfa: $rsp 16 +
STACK CFI fd94 $r14: .cfa -24 + ^ .cfa: $rsp 24 +
STACK CFI fd9b $r13: .cfa -32 + ^ .cfa: $rsp 32 +
STACK CFI fda0 $r12: .cfa -40 + ^ .cfa: $rsp 40 +
STACK CFI fda4 $rbp: .cfa -48 + ^ .cfa: $rsp 48 +
STACK CFI fda8 $rbx: .cfa -56 + ^ .cfa: $rsp 56 +
STACK CFI fdaf .cfa: $rsp 528 +
STACK CFI fe16 .cfa: $rsp 56 +
STACK CFI fe1a .cfa: $rsp 48 +
STACK CFI fe1b .cfa: $rsp 40 +
STACK CFI fe1d .cfa: $rsp 32 +
STACK CFI fe1f .cfa: $rsp 24 +
STACK CFI fe21 .cfa: $rsp 16 +
STACK CFI fe23 .cfa: $rsp 8 +
STACK CFI fe28 .cfa: $rsp 528 +
STACK CFI INIT 102d0 f9 .cfa: $rsp 8 + .ra: .cfa -8 + ^
STACK CFI 102d2 $r13: .cfa -16 + ^ .cfa: $rsp 16 +
STACK CFI 102d8 $r12: .cfa -24 + ^ .cfa: $rsp 24 +
STACK CFI 102d9 $rbp: .cfa -32 + ^ .cfa: $rsp 32 +
STACK CFI 102da $rbx: .cfa -40 + ^ .cfa: $rsp 40 +
STACK CFI 102de .cfa: $rsp 128 +
STACK CFI 1037c .cfa: $rsp 40 +
STACK CFI 10380 .cfa: $rsp 32 +
STACK CFI 10381 .cfa: $rsp 24 +
STACK CFI 10383 .cfa: $rsp 16 +
STACK CFI 10385 .cfa: $rsp 8 +
STACK CFI 10386 .cfa: $rsp 128 +
STACK CFI INIT 103d0 f9 .cfa: $rsp 8 + .ra: .cfa -8 + ^
STACK CFI 103d2 $r13: .cfa -16 + ^ .cfa: $rsp 16 +
STACK CFI 103d8 $r12: .cfa -24 + ^ .cfa: $rsp 24 +
STACK CFI 103d9 $rbp: .cfa -32 + ^ .cfa: $rsp 32 +
STACK CFI 103da $rbx: .cfa -40 + ^ .cfa: $rsp 40 +
STACK CFI 103de .cfa: $rsp 128 +
STACK CFI 1047c .cfa: $rsp 40 +
STACK CFI 10480 .cfa: $rsp 32 +
STACK CFI 10481 .cfa: $rsp 24 +
STACK CFI 10483 .cfa: $rsp 16 +
STACK CFI 10485 .cfa: $rsp 8 +
STACK CFI 10486 .cfa: $rsp 128 +
STACK CFI INIT 104d0 47 .cfa: $rsp 8 + .ra: .cfa -8 + ^
STACK CFI 104d4 .cfa: $rsp 64 +
STACK CFI 10516 .cfa: $rsp 8 +
STACK CFI INIT 10520 46 .cfa: $rsp 8 + .ra: .cfa -8 + ^
STACK CFI 10524 .cfa: $rsp 64 +
STACK CFI 10565 .cfa: $rsp 8 +
STACK CFI INIT 10570 48 .cfa: $rsp 8 + .ra: .cfa -8 + ^
STACK CFI 10574 .cfa: $rsp 64 +
STACK CFI 105b7 .cfa: $rsp 8 +
STACK CFI INIT 105c0 47 .cfa: $rsp 8 + .ra: .cfa -8 + ^
STACK CFI 105c4 .cfa: $rsp 64 +
STACK CFI 10606 .cfa: $rsp 8 +
STACK CFI INIT 10610 68c .cfa: $rsp 8 + .ra: .cfa -8 + ^
STACK CFI 10612 $r15: .cfa -16 + ^ .cfa: $rsp 16 +
STACK CFI 10617 $r14: .cfa -24 + ^ .cfa: $rsp 24 +
STACK CFI 10619 $r13: .cfa -32 + ^ .cfa: $rsp 32 +
STACK CFI 1061b $r12: .cfa -40 + ^ .cfa: $rsp 40 +
STACK CFI 1061c $rbp: .cfa -48 + ^ .cfa: $rsp 48 +
STACK CFI 1061d $rbx: .cfa -56 + ^ .cfa: $rsp 56 +
STACK CFI 10626 .cfa: $rsp 544 +
STACK CFI 10846 .cfa: $rsp 56 +
STACK CFI 10849 .cfa: $rsp 48 +
STACK CFI 1084a .cfa: $rsp 40 +
STACK CFI 1084c .cfa: $rsp 32 +
STACK CFI 1084e .cfa: $rsp 24 +
STACK CFI 10850 .cfa: $rsp 16 +
STACK CFI 10852 .cfa: $rsp 8 +
STACK CFI 10853 .cfa: $rsp 544 +
STACK CFI INIT 10ca0 45e .cfa: $rsp 8 + .ra: .cfa -8 + ^
STACK CFI 10ca2 $r15: .cfa -16 + ^ .cfa: $rsp 16 +
STACK CFI 10ca7 $r14: .cfa -24 + ^ .cfa: $rsp 24 +
STACK CFI 10ca9 $r13: .cfa -32 + ^ .cfa: $rsp 32 +
STACK CFI 10cab $r12: .cfa -40 + ^ .cfa: $rsp 40 +
STACK CFI 10caf $rbp: .cfa -48 + ^ .cfa: $rsp 48 +
STACK CFI 10cb0 $rbx: .cfa -56 + ^ .cfa: $rsp 56 +
STACK CFI 10cb7 .cfa: $rsp 272 +
STACK CFI 10e26 .cfa: $rsp 56 +
STACK CFI 10e29 .cfa: $rsp 48 +
STACK CFI 10e2a .cfa: $rsp 40 +
STACK CFI 10e2c .cfa: $rsp 32 +
STACK CFI 10e2e .cfa: $rsp 24 +
STACK CFI 10e30 .cfa: $rsp 16 +
STACK CFI 10e32 .cfa: $rsp 8 +
STACK CFI 10e38 .cfa: $rsp 272 +
STACK CFI INIT 28c2 20 .cfa: $rsp 8 + .ra: .cfa -8 + ^
STACK CFI 28ca .cfa: $rsp 16 +
STACK CFI INIT 28e2 20 .cfa: $rsp 8 + .ra: .cfa -8 + ^
STACK CFI 28ea .cfa: $rsp 16 +
STACK CFI INIT 11980 1a .cfa: $rsp 8 + .ra: .cfa -8 + ^
STACK CFI INIT 119a0 78 .cfa: $rsp 8 + .ra: .cfa -8 + ^
STACK CFI 119a2 $r12: .cfa -16 + ^ .cfa: $rsp 16 +
STACK CFI 119a6 $rbp: .cfa -24 + ^ .cfa: $rsp 24 +
STACK CFI 119a7 $rbx: .cfa -32 + ^ .cfa: $rsp 32 +
STACK CFI 119df .cfa: $rsp 24 +
STACK CFI 119e0 .cfa: $rsp 16 +
STACK CFI 119e2 .cfa: $rsp 8 +
STACK CFI 119e8 .cfa: $rsp 32 +
STACK CFI 119f5 .cfa: $rsp 24 +
STACK CFI 119f6 .cfa: $rsp 16 +
STACK CFI 119f8 .cfa: $rsp 8 +
STACK CFI 119f9 .cfa: $rsp 32 +
STACK CFI INIT 11a20 2c .cfa: $rsp 8 + .ra: .cfa -8 + ^
STACK CFI 11a34 .cfa: $rsp 16 +
STACK CFI INIT 11a50 5d .cfa: $rsp 8 + .ra: .cfa -8 + ^
STACK CFI 11a52 $r12: .cfa -16 + ^ .cfa: $rsp 16 +
STACK CFI 11a53 $rbp: .cfa -24 + ^ .cfa: $rsp 24 +
STACK CFI 11a59 $rbx: .cfa -32 + ^ .cfa: $rsp 32 +
STACK CFI 11a95 .cfa: $rsp 24 +
STACK CFI 11a98 .cfa: $rsp 16 +
STACK CFI 11a9a .cfa: $rsp 8 +
STACK CFI 11aa0 .cfa: $rsp 32 +
STACK CFI INIT 11ab0 15 .cfa: $rsp 8 + .ra: .cfa -8 + ^
STACK CFI INIT 11ad0 b6 .cfa: $rsp 8 + .ra: .cfa -8 + ^
STACK CFI 11ad2 $r13: .cfa -16 + ^ .cfa: $rsp 16 +
STACK CFI 11ad4 $r12: .cfa -24 + ^ .cfa: $rsp 24 +
STACK CFI 11ad5 $rbp: .cfa -32 + ^ .cfa: $rsp 32 +
STACK CFI 11ad6 $rbx: .cfa -40 + ^ .cfa: $rsp 40 +
STACK CFI 11ada .cfa: $rsp 48 +
STACK CFI 11b0d .cfa: $rsp 40 +
STACK CFI 11b0e .cfa: $rsp 32 +
STACK CFI 11b0f .cfa: $rsp 24 +
STACK CFI 11b11 .cfa: $rsp 16 +
STACK CFI 11b13 .cfa: $rsp 8 +
STACK CFI 11b18 .cfa: $rsp 48 +
STACK CFI INIT 11b90 ff .cfa: $rsp 8 + .ra: .cfa -8 + ^
STACK CFI 11b91 $rbp: .cfa -16 + ^ .cfa: $rsp 16 +
STACK CFI 11b95 $rbx: .cfa -24 + ^ .cfa: $rsp 24 +
STACK CFI 11b99 .cfa: $rsp 32 +
STACK CFI 11c1b .cfa: $rsp 24 +
STACK CFI 11c1c .cfa: $rsp 16 +
STACK CFI 11c1d .cfa: $rsp 8 +
STACK CFI 11c20 .cfa: $rsp 32 +
STACK CFI 11c2d .cfa: $rsp 24 +
STACK CFI 11c30 .cfa: $rsp 16 +
STACK CFI 11c31 .cfa: $rsp 8 +
STACK CFI 11c32 .cfa: $rsp 32 +
STACK CFI INIT 11c90 b4 .cfa: $rsp 8 + .ra: .cfa -8 + ^
STACK CFI 11c92 $r15: .cfa -16 + ^ .cfa: $rsp 16 +
STACK CFI 11c94 $r14: .cfa -24 + ^ .cfa: $rsp 24 +
STACK CFI 11c96 $r13: .cfa -32 + ^ .cfa: $rsp 32 +
STACK CFI 11c98 $r12: .cfa -40 + ^ .cfa: $rsp 40 +
STACK CFI 11c99 $rbp: .cfa -48 + ^ .cfa: $rsp 48 +
STACK CFI 11c9a $rbx: .cfa -56 + ^ .cfa: $rsp 56 +
STACK CFI 11ca0 .cfa: $rsp 80 +
STACK CFI 11d2d .cfa: $rsp 56 +
STACK CFI 11d2e .cfa: $rsp 48 +
STACK CFI 11d2f .cfa: $rsp 40 +
STACK CFI 11d31 .cfa: $rsp 32 +
STACK CFI 11d33 .cfa: $rsp 24 +
STACK CFI 11d35 .cfa: $rsp 16 +
STACK CFI 11d37 .cfa: $rsp 8 +
STACK CFI 11d38 .cfa: $rsp 80 +
STACK CFI INIT 11d50 b5 .cfa: $rsp 8 + .ra: .cfa -8 + ^
STACK CFI 11d52 $r15: .cfa -16 + ^ .cfa: $rsp 16 +
STACK CFI 11d54 $r14: .cfa -24 + ^ .cfa: $rsp 24 +
STACK CFI 11d56 $r13: .cfa -32 + ^ .cfa: $rsp 32 +
STACK CFI 11d58 $r12: .cfa -40 + ^ .cfa: $rsp 40 +
STACK CFI 11d59 $rbp: .cfa -48 + ^ .cfa: $rsp 48 +
STACK CFI 11d5a $rbx: .cfa -56 + ^ .cfa: $rsp 56 +
STACK CFI 11d60 .cfa: $rsp 80 +
STACK CFI 11dee .cfa: $rsp 56 +
STACK CFI 11def .cfa: $rsp 48 +
STACK CFI 11df0 .cfa: $rsp 40 +
STACK CFI 11df2 .cfa: $rsp 32 +
STACK CFI 11df4 .cfa: $rsp 24 +
STACK CFI 11df6 .cfa: $rsp 16 +
STACK CFI 11df8 .cfa: $rsp 8 +
STACK CFI 11df9 .cfa: $rsp 80 +
STACK CFI INIT 11e10 41 .cfa: $rsp 8 + .ra: .cfa -8 + ^
STACK CFI 11e11 $rbx: .cfa -16 + ^ .cfa: $rsp 16 +
STACK CFI 11e31 .cfa: $rsp 8 +
STACK CFI 11e32 .cfa: $rsp 16 +
STACK CFI INIT 11e60 88 .cfa: $rsp 8 + .ra: .cfa -8 + ^
STACK CFI 11e64 .cfa: $rsp 16 +
STACK CFI 11e87 .cfa: $rsp 8 +
STACK CFI 11e8c .cfa: $rsp 16 +
STACK CFI INIT 11ef0 c1 .cfa: $rsp 8 + .ra: .cfa -8 + ^
STACK CFI 11ef2 $r12: .cfa -16 + ^ .cfa: $rsp 16 +
STACK CFI 11ef3 $rbp: .cfa -24 + ^ .cfa: $rsp 24 +
STACK CFI 11ef7 $rbx: .cfa -32 + ^ .cfa: $rsp 32 +
STACK CFI 11efb .cfa: $rsp 64 +
STACK CFI 11f33 .cfa: $rsp 32 +
STACK CFI 11f36 .cfa: $rsp 24 +
STACK CFI 11f37 .cfa: $rsp 16 +
STACK CFI 11f39 .cfa: $rsp 8 +
STACK CFI 11f40 .cfa: $rsp 64 +
STACK CFI 11f6e .cfa: $rsp 32 +
STACK CFI 11f6f .cfa: $rsp 24 +
STACK CFI 11f70 .cfa: $rsp 16 +
STACK CFI 11f72 .cfa: $rsp 8 +
STACK CFI 11f73 .cfa: $rsp 64 +
STACK CFI INIT 11fe0 22 .cfa: $rsp 8 + .ra: .cfa -8 + ^
STACK CFI INIT 12010 1d9 .cfa: $rsp 8 + .ra: .cfa -8 + ^
STACK CFI 12012 $r15: .cfa -16 + ^ .cfa: $rsp 16 +
STACK CFI 12014 $r14: .cfa -24 + ^ .cfa: $rsp 24 +
STACK CFI 12016 $r13: .cfa -32 + ^ .cfa: $rsp 32 +
STACK CFI 12018 $r12: .cfa -40 + ^ .cfa: $rsp 40 +
STACK CFI 12019 $rbp: .cfa -48 + ^ .cfa: $rsp 48 +
STACK CFI 1201d $rbx: .cfa -56 + ^ .cfa: $rsp 56 +
STACK CFI 12021 .cfa: $rsp 128 +
STACK CFI 12108 .cfa: $rsp 56 +
STACK CFI 1210b .cfa: $rsp 48 +
STACK CFI 1210c .cfa: $rsp 40 +
STACK CFI 1210e .cfa: $rsp 32 +
STACK CFI 12110 .cfa: $rsp 24 +
STACK CFI 12112 .cfa: $rsp 16 +
STACK CFI 12114 .cfa: $rsp 8 +
STACK CFI 12118 .cfa: $rsp 128 +
STACK CFI INIT 11fc0 5 .cfa: $rsp 8 + .ra: .cfa -8 + ^
STACK CFI INIT 121f0 1d7 .cfa: $rsp 8 + .ra: .cfa -8 + ^
STACK CFI 121f2 $r15: .cfa -16 + ^ .cfa: $rsp 16 +
STACK CFI 121f4 $r14: .cfa -24 + ^ .cfa: $rsp 24 +
STACK CFI 121f6 $r13: .cfa -32 + ^ .cfa: $rsp 32 +
STACK CFI 121f8 $r12: .cfa -40 + ^ .cfa: $rsp 40 +
STACK CFI 121f9 $rbp: .cfa -48 + ^ .cfa: $rsp 48 +
STACK CFI 121fd $rbx: .cfa -56 + ^ .cfa: $rsp 56 +
STACK CFI 12201 .cfa: $rsp 128 +
STACK CFI 122e7 .cfa: $rsp 56 +
STACK CFI 122ea .cfa: $rsp 48 +
STACK CFI 122eb .cfa: $rsp 40 +
STACK CFI 122ed .cfa: $rsp 32 +
STACK CFI 122ef .cfa: $rsp 24 +
STACK CFI 122f1 .cfa: $rsp 16 +
STACK CFI 122f3 .cfa: $rsp 8 +
STACK CFI 122f8 .cfa: $rsp 128 +
STACK CFI INIT 11fd0 5 .cfa: $rsp 8 + .ra: .cfa -8 + ^
STACK CFI INIT 123d0 91 .cfa: $rsp 8 + .ra: .cfa -8 + ^
STACK CFI 123d2 $r15: .cfa -16 + ^ .cfa: $rsp 16 +
STACK CFI 123db $r14: .cfa -24 + ^ .cfa: $rsp 24 +
STACK CFI 123e4 $r13: .cfa -32 + ^ .cfa: $rsp 32 +
STACK CFI 123e6 $r12: .cfa -40 + ^ .cfa: $rsp 40 +
STACK CFI 123e7 $rbp: .cfa -48 + ^ .cfa: $rsp 48 +
STACK CFI 123eb $rbx: .cfa -56 + ^ .cfa: $rsp 56 +
STACK CFI 123f3 .cfa: $rsp 80 +
STACK CFI 1243c .cfa: $rsp 56 +
STACK CFI 1243d .cfa: $rsp 48 +
STACK CFI 12440 .cfa: $rsp 40 +
STACK CFI 12442 .cfa: $rsp 32 +
STACK CFI 12444 .cfa: $rsp 24 +
STACK CFI 12446 .cfa: $rsp 16 +
STACK CFI 12448 .cfa: $rsp 8 +
STACK CFI 12450 .cfa: $rsp 80 +
STACK CFI 12454 .cfa: $rsp 56 +
STACK CFI 12457 .cfa: $rsp 48 +
STACK CFI 12458 .cfa: $rsp 40 +
STACK CFI 1245a .cfa: $rsp 32 +
STACK CFI 1245c .cfa: $rsp 24 +
STACK CFI 1245e .cfa: $rsp 16 +
STACK CFI 12460 .cfa: $rsp 8 +
STACK CFI INIT 12470 56 .cfa: $rsp 8 + .ra: .cfa -8 + ^
STACK CFI 12471 $rbx: .cfa -16 + ^ .cfa: $rsp 16 +
STACK CFI 1247d .cfa: $rsp 48 +
STACK CFI 124c4 .cfa: $rsp 16 +
STACK CFI 124c5 .cfa: $rsp 8 +
STACK CFI INIT 124d0 15b .cfa: $rsp 8 + .ra: .cfa -8 + ^
STACK CFI 124d2 $r14: .cfa -16 + ^ .cfa: $rsp 16 +
STACK CFI 124d4 $r13: .cfa -24 + ^ .cfa: $rsp 24 +
STACK CFI 124d6 $r12: .cfa -32 + ^ .cfa: $rsp 32 +
STACK CFI 124da $rbp: .cfa -40 + ^ .cfa: $rsp 40 +
STACK CFI 124de $rbx: .cfa -48 + ^ .cfa: $rsp 48 +
STACK CFI 124e2 .cfa: $rsp 80 +
STACK CFI 125c9 .cfa: $rsp 48 +
STACK CFI 125cd .cfa: $rsp 40 +
STACK CFI 125ce .cfa: $rsp 32 +
STACK CFI 125d0 .cfa: $rsp 24 +
STACK CFI 125d2 .cfa: $rsp 16 +
STACK CFI 125d4 .cfa: $rsp 8 +
STACK CFI 125d8 .cfa: $rsp 80 +
STACK CFI INIT 127e0 283 .cfa: $rsp 8 + .ra: .cfa -8 + ^
STACK CFI 127e2 $r15: .cfa -16 + ^ .cfa: $rsp 16 +
STACK CFI 127e4 $r14: .cfa -24 + ^ .cfa: $rsp 24 +
STACK CFI 127e6 $r13: .cfa -32 + ^ .cfa: $rsp 32 +
STACK CFI 127e8 $r12: .cfa -40 + ^ .cfa: $rsp 40 +
STACK CFI 127ec $rbp: .cfa -48 + ^ .cfa: $rsp 48 +
STACK CFI 127ed $rbx: .cfa -56 + ^ .cfa: $rsp 56 +
STACK CFI 127f1 .cfa: $rsp 80 +
STACK CFI 12888 .cfa: $rsp 56 +
STACK CFI 12889 .cfa: $rsp 48 +
STACK CFI 1288a .cfa: $rsp 40 +
STACK CFI 1288c .cfa: $rsp 32 +
STACK CFI 1288e .cfa: $rsp 24 +
STACK CFI 12890 .cfa: $rsp 16 +
STACK CFI 12892 .cfa: $rsp 8 +
STACK CFI 12898 .cfa: $rsp 80 +
STACK CFI 12981 .cfa: $rsp 56 +
STACK CFI 12982 .cfa: $rsp 48 +
STACK CFI 12983 .cfa: $rsp 40 +
STACK CFI 12985 .cfa: $rsp 32 +
STACK CFI 12987 .cfa: $rsp 24 +
STACK CFI 12989 .cfa: $rsp 16 +
STACK CFI 1298b .cfa: $rsp 8 +
STACK CFI 12990 .cfa: $rsp 80 +
STACK CFI 12a20 .cfa: $rsp 56 +
STACK CFI 12a21 .cfa: $rsp 48 +
STACK CFI 12a22 .cfa: $rsp 40 +
STACK CFI 12a24 .cfa: $rsp 32 +
STACK CFI 12a26 .cfa: $rsp 24 +
STACK CFI 12a28 .cfa: $rsp 16 +
STACK CFI 12a2a .cfa: $rsp 8 +
STACK CFI 12a30 .cfa: $rsp 80 +
STACK CFI INIT 12a70 151 .cfa: $rsp 8 + .ra: .cfa -8 + ^
STACK CFI 12a72 $r14: .cfa -16 + ^ .cfa: $rsp 16 +
STACK CFI 12a77 $r13: .cfa -24 + ^ .cfa: $rsp 24 +
STACK CFI 12a79 $r12: .cfa -32 + ^ .cfa: $rsp 32 +
STACK CFI 12a7a $rbp: .cfa -40 + ^ .cfa: $rsp 40 +
STACK CFI 12a7b $rbx: .cfa -48 + ^ .cfa: $rsp 48 +
STACK CFI 12ab9 .cfa: $rsp 40 +
STACK CFI 12aba .cfa: $rsp 32 +
STACK CFI 12abc .cfa: $rsp 24 +
STACK CFI 12abe .cfa: $rsp 16 +
STACK CFI 12ac0 .cfa: $rsp 8 +
STACK CFI 12ac8 .cfa: $rsp 48 +
STACK CFI 12b7e .cfa: $rsp 40 +
STACK CFI 12b7f .cfa: $rsp 32 +
STACK CFI 12b81 .cfa: $rsp 24 +
STACK CFI 12b83 .cfa: $rsp 16 +
STACK CFI 12b85 .cfa: $rsp 8 +
STACK CFI 12b90 .cfa: $rsp 48 +
STACK CFI INIT 12630 d3 .cfa: $rsp 8 + .ra: .cfa -8 + ^
STACK CFI 12632 $r12: .cfa -16 + ^ .cfa: $rsp 16 +
STACK CFI 12633 $rbp: .cfa -24 + ^ .cfa: $rsp 24 +
STACK CFI 12637 $rbx: .cfa -32 + ^ .cfa: $rsp 32 +
STACK CFI 1263e .cfa: $rsp 48 +
STACK CFI 126cd .cfa: $rsp 32 +
STACK CFI 126ce .cfa: $rsp 24 +
STACK CFI 126cf .cfa: $rsp 16 +
STACK CFI 126d1 .cfa: $rsp 8 +
STACK CFI 126d8 .cfa: $rsp 48 +
STACK CFI 126e7 .cfa: $rsp 32 +
STACK CFI 126e8 .cfa: $rsp 24 +
STACK CFI 126e9 .cfa: $rsp 16 +
STACK CFI 126eb .cfa: $rsp 8 +
STACK CFI 126f0 .cfa: $rsp 48 +
STACK CFI INIT 12710 cb .cfa: $rsp 8 + .ra: .cfa -8 + ^
STACK CFI 12712 $r12: .cfa -16 + ^ .cfa: $rsp 16 +
STACK CFI 12713 $rbp: .cfa -24 + ^ .cfa: $rsp 24 +
STACK CFI 12717 $rbx: .cfa -32 + ^ .cfa: $rsp 32 +
STACK CFI 1271e .cfa: $rsp 48 +
STACK CFI 127ab .cfa: $rsp 32 +
STACK CFI 127ac .cfa: $rsp 24 +
STACK CFI 127ad .cfa: $rsp 16 +
STACK CFI 127af .cfa: $rsp 8 +
STACK CFI 127b0 .cfa: $rsp 48 +
STACK CFI 127bf .cfa: $rsp 32 +
STACK CFI 127c0 .cfa: $rsp 24 +
STACK CFI 127c1 .cfa: $rsp 16 +
STACK CFI 127c3 .cfa: $rsp 8 +
STACK CFI 127c8 .cfa: $rsp 48 +
STACK CFI INIT 12bd0 1f .cfa: $rsp 8 + .ra: .cfa -8 + ^
STACK CFI 12bdb .cfa: $rsp 16 +
STACK CFI 12bee .cfa: $rsp 8 +
STACK CFI INIT 12bf0 5 .cfa: $rsp 8 + .ra: .cfa -8 + ^
STACK CFI INIT 12c00 450 .cfa: $rsp 8 + .ra: .cfa -8 + ^
STACK CFI 12c02 $r15: .cfa -16 + ^ .cfa: $rsp 16 +
STACK CFI 12c04 $r14: .cfa -24 + ^ .cfa: $rsp 24 +
STACK CFI 12c06 $r13: .cfa -32 + ^ .cfa: $rsp 32 +
STACK CFI 12c08 $r12: .cfa -40 + ^ .cfa: $rsp 40 +
STACK CFI 12c09 $rbp: .cfa -48 + ^ .cfa: $rsp 48 +
STACK CFI 12c0a $rbx: .cfa -56 + ^ .cfa: $rsp 56 +
STACK CFI 12c11 .cfa: $rsp 96 +
STACK CFI 12c53 .cfa: $rsp 56 +
STACK CFI 12c56 .cfa: $rsp 48 +
STACK CFI 12c57 .cfa: $rsp 40 +
STACK CFI 12c59 .cfa: $rsp 32 +
STACK CFI 12c5b .cfa: $rsp 24 +
STACK CFI 12c5d .cfa: $rsp 16 +
STACK CFI 12c5f .cfa: $rsp 8 +
STACK CFI 12c60 .cfa: $rsp 96 +
STACK CFI 12d96 .cfa: $rsp 56 +
STACK CFI 12d97 .cfa: $rsp 48 +
STACK CFI 12d98 .cfa: $rsp 40 +
STACK CFI 12d9a .cfa: $rsp 32 +
STACK CFI 12d9c .cfa: $rsp 24 +
STACK CFI 12d9e .cfa: $rsp 16 +
STACK CFI 12da0 .cfa: $rsp 8 +
STACK CFI 12da8 .cfa: $rsp 96 +
STACK CFI INIT 13300 247 .cfa: $rsp 8 + .ra: .cfa -8 + ^
STACK CFI 13302 $r15: .cfa -16 + ^ .cfa: $rsp 16 +
STACK CFI 13304 $r14: .cfa -24 + ^ .cfa: $rsp 24 +
STACK CFI 13306 $r13: .cfa -32 + ^ .cfa: $rsp 32 +
STACK CFI 1330b $r12: .cfa -40 + ^ .cfa: $rsp 40 +
STACK CFI 1330c $rbp: .cfa -48 + ^ .cfa: $rsp 48 +
STACK CFI 13312 $rbx: .cfa -56 + ^ .cfa: $rsp 56 +
STACK CFI 13319 .cfa: $rsp 80 +
STACK CFI 133c3 .cfa: $rsp 56 +
STACK CFI 133c4 .cfa: $rsp 48 +
STACK CFI 133c5 .cfa: $rsp 40 +
STACK CFI 133c7 .cfa: $rsp 32 +
STACK CFI 133c9 .cfa: $rsp 24 +
STACK CFI 133cb .cfa: $rsp 16 +
STACK CFI 133cd .cfa: $rsp 8 +
STACK CFI 133d0 .cfa: $rsp 80 +
STACK CFI INIT 13050 2a9 .cfa: $rsp 8 + .ra: .cfa -8 + ^
STACK CFI 13052 $r15: .cfa -16 + ^ .cfa: $rsp 16 +
STACK CFI 13054 $r14: .cfa -24 + ^ .cfa: $rsp 24 +
STACK CFI 13056 $r13: .cfa -32 + ^ .cfa: $rsp 32 +
STACK CFI 13058 $r12: .cfa -40 + ^ .cfa: $rsp 40 +
STACK CFI 1305c $rbp: .cfa -48 + ^ .cfa: $rsp 48 +
STACK CFI 1305d $rbx: .cfa -56 + ^ .cfa: $rsp 56 +
STACK CFI 13061 .cfa: $rsp 96 +
STACK CFI 1308b .cfa: $rsp 56 +
STACK CFI 1308f .cfa: $rsp 48 +
STACK CFI 13090 .cfa: $rsp 40 +
STACK CFI 13092 .cfa: $rsp 32 +
STACK CFI 13094 .cfa: $rsp 24 +
STACK CFI 13096 .cfa: $rsp 16 +
STACK CFI 13098 .cfa: $rsp 8 +
STACK CFI 130a0 .cfa: $rsp 96 +
STACK CFI INIT 13550 d7 .cfa: $rsp 8 + .ra: .cfa -8 + ^
STACK CFI 13552 $r14: .cfa -16 + ^ .cfa: $rsp 16 +
STACK CFI 13557 $r13: .cfa -24 + ^ .cfa: $rsp 24 +
STACK CFI 13559 $r12: .cfa -32 + ^ .cfa: $rsp 32 +
STACK CFI 1355d $rbp: .cfa -40 + ^ .cfa: $rsp 40 +
STACK CFI 1355e $rbx: .cfa -48 + ^ .cfa: $rsp 48 +
STACK CFI 13562 .cfa: $rsp 64 +
STACK CFI 13601 .cfa: $rsp 48 +
STACK CFI 13605 .cfa: $rsp 40 +
STACK CFI 13606 .cfa: $rsp 32 +
STACK CFI 13608 .cfa: $rsp 24 +
STACK CFI 1360a .cfa: $rsp 16 +
STACK CFI 1360c .cfa: $rsp 8 +
STACK CFI 1360d .cfa: $rsp 64 +
STACK CFI INIT 13630 13 .cfa: $rsp 8 + .ra: .cfa -8 + ^
STACK CFI 13634 .cfa: $rsp 32 +
STACK CFI 13642 .cfa: $rsp 8 +
STACK CFI INIT 13650 c7 .cfa: $rsp 8 + .ra: .cfa -8 + ^
STACK CFI 13651 $rbx: .cfa -16 + ^ .cfa: $rsp 16 +
STACK CFI 13658 .cfa: $rsp 48 +
STACK CFI 136e7 .cfa: $rsp 16 +
STACK CFI 136e8 .cfa: $rsp 8 +
STACK CFI 136f0 .cfa: $rsp 48 +
STACK CFI INIT 13720 1c .cfa: $rsp 8 + .ra: .cfa -8 + ^
STACK CFI 13721 $rbx: .cfa -16 + ^ .cfa: $rsp 16 +
STACK CFI 1373b .cfa: $rsp 8 +
STACK CFI INIT 13ad0 244 .cfa: $rsp 8 + .ra: .cfa -8 + ^
STACK CFI 13ad2 $r15: .cfa -16 + ^ .cfa: $rsp 16 +
STACK CFI 13ad4 $r14: .cfa -24 + ^ .cfa: $rsp 24 +
STACK CFI 13ad6 $r13: .cfa -32 + ^ .cfa: $rsp 32 +
STACK CFI 13ad8 $r12: .cfa -40 + ^ .cfa: $rsp 40 +
STACK CFI 13ad9 $rbp: .cfa -48 + ^ .cfa: $rsp 48 +
STACK CFI 13ada $rbx: .cfa -56 + ^ .cfa: $rsp 56 +
STACK CFI 13ae1 .cfa: $rsp 80 +
STACK CFI 13b19 .cfa: $rsp 56 +
STACK CFI 13b1a .cfa: $rsp 48 +
STACK CFI 13b1b .cfa: $rsp 40 +
STACK CFI 13b1d .cfa: $rsp 32 +
STACK CFI 13b1f .cfa: $rsp 24 +
STACK CFI 13b21 .cfa: $rsp 16 +
STACK CFI 13b23 .cfa: $rsp 8 +
STACK CFI 13b28 .cfa: $rsp 80 +
STACK CFI 13bc4 .cfa: $rsp 56 +
STACK CFI 13bc5 .cfa: $rsp 48 +
STACK CFI 13bc6 .cfa: $rsp 40 +
STACK CFI 13bc8 .cfa: $rsp 32 +
STACK CFI 13bca .cfa: $rsp 24 +
STACK CFI 13bcc .cfa: $rsp 16 +
STACK CFI 13bce .cfa: $rsp 8 +
STACK CFI 13bd0 .cfa: $rsp 80 +
STACK CFI INIT 13740 7e .cfa: $rsp 8 + .ra: .cfa -8 + ^
STACK CFI 13794 .cfa: $rsp 32 +
STACK CFI 137bd .cfa: $rsp 8 +
STACK CFI INIT 137c0 2aa .cfa: $rsp 8 + .ra: .cfa -8 + ^
STACK CFI 137c2 $r15: .cfa -16 + ^ .cfa: $rsp 16 +
STACK CFI 137c4 $r14: .cfa -24 + ^ .cfa: $rsp 24 +
STACK CFI 137c6 $r13: .cfa -32 + ^ .cfa: $rsp 32 +
STACK CFI 137c8 $r12: .cfa -40 + ^ .cfa: $rsp 40 +
STACK CFI 137c9 $rbp: .cfa -48 + ^ .cfa: $rsp 48 +
STACK CFI 137cd $rbx: .cfa -56 + ^ .cfa: $rsp 56 +
STACK CFI 137d7 .cfa: $rsp 224 +
STACK CFI 138ec .cfa: $rsp 56 +
STACK CFI 138f0 .cfa: $rsp 48 +
STACK CFI 138f1 .cfa: $rsp 40 +
STACK CFI 138f3 .cfa: $rsp 32 +
STACK CFI 138f5 .cfa: $rsp 24 +
STACK CFI 138f7 .cfa: $rsp 16 +
STACK CFI 138f9 .cfa: $rsp 8 +
STACK CFI 13900 .cfa: $rsp 224 +
STACK CFI INIT 13a70 5f .cfa: $rsp 8 + .ra: .cfa -8 + ^
STACK CFI 13a71 $rbp: .cfa -16 + ^ .cfa: $rsp 16 +
STACK CFI 13a77 $rbx: .cfa -24 + ^ .cfa: $rsp 24 +
STACK CFI 13a7b .cfa: $rsp 64 +
STACK CFI 13ab1 .cfa: $rsp 24 +
STACK CFI 13ab2 .cfa: $rsp 16 +
STACK CFI 13ab3 .cfa: $rsp 8 +
STACK CFI 13ab8 .cfa: $rsp 64 +
STACK CFI INIT 13ea0 23 .cfa: $rsp 8 + .ra: .cfa -8 + ^
STACK CFI 13ea4 .cfa: $rsp 16 +
STACK CFI 13eb8 .cfa: $rsp 8 +
STACK CFI INIT 13d20 b5 .cfa: $rsp 8 + .ra: .cfa -8 + ^
STACK CFI 13d22 $r12: .cfa -16 + ^ .cfa: $rsp 16 +
STACK CFI 13d2a $rbp: .cfa -24 + ^ .cfa: $rsp 24 +
STACK CFI 13d35 $rbx: .cfa -32 + ^ .cfa: $rsp 32 +
STACK CFI 13d9b .cfa: $rsp 24 +
STACK CFI 13d9c .cfa: $rsp 16 +
STACK CFI 13d9e .cfa: $rsp 8 +
STACK CFI 13da0 .cfa: $rsp 32 +
STACK CFI INIT 13de0 c0 .cfa: $rsp 8 + .ra: .cfa -8 + ^
STACK CFI 13de1 $rbx: .cfa -16 + ^ .cfa: $rsp 16 +
STACK CFI 13de5 .cfa: $rsp 48 +
STACK CFI 13e7d .cfa: $rsp 16 +
STACK CFI 13e80 .cfa: $rsp 8 +
STACK CFI 13e81 .cfa: $rsp 48 +
STACK CFI INIT 13ed0 1e .cfa: $rsp 8 + .ra: .cfa -8 + ^
STACK CFI INIT 13ef0 33 .cfa: $rsp 8 + .ra: .cfa -8 + ^
STACK CFI INIT 13f30 56 .cfa: $rsp 8 + .ra: .cfa -8 + ^
STACK CFI INIT 13f90 4c .cfa: $rsp 8 + .ra: .cfa -8 + ^
STACK CFI INIT 13fe0 36 .cfa: $rsp 8 + .ra: .cfa -8 + ^
STACK CFI INIT 14020 3a .cfa: $rsp 8 + .ra: .cfa -8 + ^
STACK CFI INIT 14060 2b .cfa: $rsp 8 + .ra: .cfa -8 + ^
STACK CFI INIT 14090 26 .cfa: $rsp 8 + .ra: .cfa -8 + ^
STACK CFI INIT 140c0 2b .cfa: $rsp 8 + .ra: .cfa -8 + ^
STACK CFI INIT 140f0 64 .cfa: $rsp 8 + .ra: .cfa -8 + ^
STACK CFI INIT 14160 3a .cfa: $rsp 8 + .ra: .cfa -8 + ^
STACK CFI INIT 141a0 1f .cfa: $rsp 8 + .ra: .cfa -8 + ^
STACK CFI INIT 141c0 38 .cfa: $rsp 8 + .ra: .cfa -8 + ^
STACK CFI INIT 14200 45 .cfa: $rsp 8 + .ra: .cfa -8 + ^
STACK CFI 14206 $rbx: .cfa -16 + ^ .cfa: $rsp 16 +
STACK CFI 14223 $rbx: $rbx .cfa: $rsp 8 +
STACK CFI 14228 $rbx: .cfa -16 + ^ .cfa: $rsp 16 +
STACK CFI 1423c $rbx: $rbx .cfa: $rsp 8 +
STACK CFI 14240 $rbx: .cfa -16 + ^ .cfa: $rsp 16 +
STACK CFI 14244 $rbx: $rbx .cfa: $rsp 8 +
STACK CFI INIT 14250 6c .cfa: $rsp 8 + .ra: .cfa -8 + ^
STACK CFI 14254 .cfa: $rsp 32 +
STACK CFI 142ae .cfa: $rsp 8 +
STACK CFI 142b0 .cfa: $rsp 32 +
STACK CFI INIT 142c0 10 .cfa: $rsp 8 + .ra: .cfa -8 + ^
STACK CFI INIT 142d0 4b .cfa: $rsp 8 + .ra: .cfa -8 + ^
STACK CFI 142d1 $rbp: .cfa -16 + ^ .cfa: $rsp 16 +
STACK CFI 142d2 $rbx: .cfa -24 + ^ .cfa: $rsp 24 +
STACK CFI 142d9 .cfa: $rsp 32 +
STACK CFI 1430c .cfa: $rsp 24 +
STACK CFI 1430d .cfa: $rsp 16 +
STACK CFI 1430e .cfa: $rsp 8 +
STACK CFI 14310 .cfa: $rsp 32 +
STACK CFI INIT 14320 5 .cfa: $rsp 8 + .ra: .cfa -8 + ^
STACK CFI INIT 14330 17f .cfa: $rsp 8 + .ra: .cfa -8 + ^
STACK CFI 14332 $r15: .cfa -16 + ^ .cfa: $rsp 16 +
STACK CFI 14334 $r14: .cfa -24 + ^ .cfa: $rsp 24 +
STACK CFI 14339 $r13: .cfa -32 + ^ .cfa: $rsp 32 +
STACK CFI 1433e $r12: .cfa -40 + ^ .cfa: $rsp 40 +
STACK CFI 14342 $rbp: .cfa -48 + ^ .cfa: $rsp 48 +
STACK CFI 14345 $rbx: .cfa -56 + ^ .cfa: $rsp 56 +
STACK CFI 1434c .cfa: $rsp 208 +
STACK CFI 14474 .cfa: $rsp 56 +
STACK CFI 14477 .cfa: $rsp 48 +
STACK CFI 14478 .cfa: $rsp 40 +
STACK CFI 1447a .cfa: $rsp 32 +
STACK CFI 1447c .cfa: $rsp 24 +
STACK CFI 1447e .cfa: $rsp 16 +
STACK CFI 14480 .cfa: $rsp 8 +
STACK CFI 14488 .cfa: $rsp 208 +
STACK CFI INIT 144b0 14 .cfa: $rsp 8 + .ra: .cfa -8 + ^
STACK CFI INIT 144d0 40 .cfa: $rsp 8 + .ra: .cfa -8 + ^
STACK CFI 144d6 $rbx: .cfa -16 + ^ .cfa: $rsp 16 +
STACK CFI 144f1 .cfa: $rsp 8 +
STACK CFI 144f8 .cfa: $rsp 16 +
STACK CFI 1450f .cfa: $rsp 8 +
STACK CFI INIT 14780 f .cfa: $rsp 8 + .ra: .cfa -8 + ^
STACK CFI INIT 14510 f .cfa: $rsp 8 + .ra: .cfa -8 + ^
STACK CFI INIT 14790 13 .cfa: $rsp 8 + .ra: .cfa -8 + ^
STACK CFI INIT 14520 13 .cfa: $rsp 8 + .ra: .cfa -8 + ^
STACK CFI INIT 14540 202 .cfa: $rsp 8 + .ra: .cfa -8 + ^
STACK CFI 14542 $r15: .cfa -16 + ^ .cfa: $rsp 16 +
STACK CFI 14549 $r14: .cfa -24 + ^ .cfa: $rsp 24 +
STACK CFI 1454b $r13: .cfa -32 + ^ .cfa: $rsp 32 +
STACK CFI 1454d $r12: .cfa -40 + ^ .cfa: $rsp 40 +
STACK CFI 1454e $rbp: .cfa -48 + ^ .cfa: $rsp 48 +
STACK CFI 14552 $rbx: .cfa -56 + ^ .cfa: $rsp 56 +
STACK CFI 14559 .cfa: $rsp 208 +
STACK CFI 146eb .cfa: $rsp 56 +
STACK CFI 146ec .cfa: $rsp 48 +
STACK CFI 146ed .cfa: $rsp 40 +
STACK CFI 146ef .cfa: $rsp 32 +
STACK CFI 146f1 .cfa: $rsp 24 +
STACK CFI 146f3 .cfa: $rsp 16 +
STACK CFI 146f5 .cfa: $rsp 8 +
STACK CFI 14700 .cfa: $rsp 208 +
STACK CFI INIT 14750 24 .cfa: $rsp 8 + .ra: .cfa -8 + ^
STACK CFI 14753 $rbx: .cfa -16 + ^ .cfa: $rsp 16 +
STACK CFI 1476f .cfa: $rsp 8 +
STACK CFI 14770 .cfa: $rsp 16 +
STACK CFI 14773 .cfa: $rsp 8 +
STACK CFI INIT 147b0 8 .cfa: $rsp 8 + .ra: .cfa -8 + ^
STACK CFI INIT 147c0 386 .cfa: $rsp 8 + .ra: .cfa -8 + ^
STACK CFI INIT 14b50 43 .cfa: $rsp 8 + .ra: .cfa -8 + ^
STACK CFI 14b7c .cfa: $rsp 16 +
STACK CFI INIT 14ba0 46 .cfa: $rsp 8 + .ra: .cfa -8 + ^
STACK CFI 14bcf .cfa: $rsp 16 +
STACK CFI INIT 14bf0 8 .cfa: $rsp 8 + .ra: .cfa -8 + ^
STACK CFI INIT 14c00 8 .cfa: $rsp 8 + .ra: .cfa -8 + ^
STACK CFI INIT 14c10 2e6 .cfa: $rsp 8 + .ra: .cfa -8 + ^
STACK CFI INIT 14f00 d7 .cfa: $rsp 8 + .ra: .cfa -8 + ^
STACK CFI INIT 14fe0 105 .cfa: $rsp 8 + .ra: .cfa -8 + ^
STACK CFI 14fe1 $rbp: .cfa -16 + ^ .cfa: $rsp 16 +
STACK CFI 14fe5 $rbx: .cfa -24 + ^ .cfa: $rsp 24 +
STACK CFI 15069 .cfa: $rsp 16 +
STACK CFI 15070 .cfa: $rsp 8 +
STACK CFI 15078 .cfa: $rsp 24 +
STACK CFI 150c7 .cfa: $rsp 16 +
STACK CFI 150d3 .cfa: $rsp 8 +
STACK CFI 150d4 .cfa: $rsp 24 +
STACK CFI INIT 150f0 e6 .cfa: $rsp 8 + .ra: .cfa -8 + ^
STACK CFI 15101 $r12: .cfa -16 + ^ .cfa: $rsp 16 +
STACK CFI 15102 $rbp: .cfa -24 + ^ .cfa: $rsp 24 +
STACK CFI 15103 $rbx: .cfa -32 + ^ .cfa: $rsp 32 +
STACK CFI 15179 $rbx: $rbx .cfa: $rsp 24 +
STACK CFI 1517a $rbp: $rbp .cfa: $rsp 16 +
STACK CFI 15187 $r12: $r12 .cfa: $rsp 8 +
STACK CFI 15190 $r12: .cfa -16 + ^ $rbp: .cfa -24 + ^ $rbx: .cfa -32 + ^ .cfa: $rsp 32 +
STACK CFI 1519b $rbx: $rbx .cfa: $rsp 24 +
STACK CFI 1519c $rbp: $rbp .cfa: $rsp 16 +
STACK CFI 151a9 $r12: $r12 .cfa: $rsp 8 +
STACK CFI 151b0 $r12: .cfa -16 + ^ $rbp: .cfa -24 + ^ $rbx: .cfa -32 + ^ .cfa: $rsp 32 +
STACK CFI 151b1 $rbx: $rbx .cfa: $rsp 24 +
STACK CFI 151b2 $rbp: $rbp .cfa: $rsp 16 +
STACK CFI 151bc $r12: $r12 .cfa: $rsp 8 +
STACK CFI 151bd $r12: .cfa -16 + ^ $rbp: .cfa -24 + ^ $rbx: .cfa -32 + ^ .cfa: $rsp 32 +
STACK CFI 151be $rbx: $rbx .cfa: $rsp 24 +
STACK CFI 151bf $rbp: $rbp .cfa: $rsp 16 +
STACK CFI 151cc $r12: $r12 .cfa: $rsp 8 +
STACK CFI INIT 151e0 1fa .cfa: $rsp 8 + .ra: .cfa -8 + ^
STACK CFI 151e2 $r13: .cfa -16 + ^ .cfa: $rsp 16 +
STACK CFI 151e7 $r12: .cfa -24 + ^ .cfa: $rsp 24 +
STACK CFI 151eb $rbp: .cfa -32 + ^ .cfa: $rsp 32 +
STACK CFI 151ef $rbx: .cfa -40 + ^ .cfa: $rsp 40 +
STACK CFI 152be .cfa: $rsp 32 +
STACK CFI 152c7 .cfa: $rsp 24 +
STACK CFI 152c9 .cfa: $rsp 16 +
STACK CFI 152cb .cfa: $rsp 8 +
STACK CFI 152d0 .cfa: $rsp 40 +
STACK CFI 1531a .cfa: $rsp 32 +
STACK CFI 15326 .cfa: $rsp 24 +
STACK CFI 15328 .cfa: $rsp 16 +
STACK CFI 1532a .cfa: $rsp 8 +
STACK CFI 1532b .cfa: $rsp 40 +
STACK CFI 1532c .cfa: $rsp 32 +
STACK CFI 15338 .cfa: $rsp 24 +
STACK CFI 1533a .cfa: $rsp 16 +
STACK CFI 1533c .cfa: $rsp 8 +
STACK CFI 1533d .cfa: $rsp 40 +
STACK CFI 15371 .cfa: $rsp 32 +
STACK CFI 15380 .cfa: $rsp 24 +
STACK CFI 15382 .cfa: $rsp 16 +
STACK CFI 15384 .cfa: $rsp 8 +
STACK CFI 15385 .cfa: $rsp 40 +
STACK CFI INIT 153e0 2b .cfa: $rsp 8 + .ra: .cfa -8 + ^
STACK CFI INIT 15410 27f .cfa: $rsp 8 + .ra: .cfa -8 + ^
STACK CFI 15412 $r15: .cfa -16 + ^ .cfa: $rsp 16 +
STACK CFI 15414 $r14: .cfa -24 + ^ .cfa: $rsp 24 +
STACK CFI 15416 $r13: .cfa -32 + ^ .cfa: $rsp 32 +
STACK CFI 15418 $r12: .cfa -40 + ^ .cfa: $rsp 40 +
STACK CFI 15419 $rbp: .cfa -48 + ^ .cfa: $rsp 48 +
STACK CFI 1541a $rbx: .cfa -56 + ^ .cfa: $rsp 56 +
STACK CFI 1541e .cfa: $rsp 96 +
STACK CFI 15584 .cfa: $rsp 56 +
STACK CFI 15585 .cfa: $rsp 48 +
STACK CFI 15586 .cfa: $rsp 40 +
STACK CFI 15588 .cfa: $rsp 32 +
STACK CFI 1558a .cfa: $rsp 24 +
STACK CFI 1558c .cfa: $rsp 16 +
STACK CFI 1558e .cfa: $rsp 8 +
STACK CFI 15590 .cfa: $rsp 96 +
STACK CFI INIT 15690 1c3 .cfa: $rsp 8 + .ra: .cfa -8 + ^
STACK CFI 15692 $r14: .cfa -16 + ^ .cfa: $rsp 16 +
STACK CFI 15699 $r13: .cfa -24 + ^ .cfa: $rsp 24 +
STACK CFI 1569e $r12: .cfa -32 + ^ .cfa: $rsp 32 +
STACK CFI 1569f $rbp: .cfa -40 + ^ .cfa: $rsp 40 +
STACK CFI 156a0 $rbx: .cfa -48 + ^ .cfa: $rsp 48 +
STACK CFI 157dc .cfa: $rsp 40 +
STACK CFI 157dd .cfa: $rsp 32 +
STACK CFI 157df .cfa: $rsp 24 +
STACK CFI 157e1 .cfa: $rsp 16 +
STACK CFI 157e3 .cfa: $rsp 8 +
STACK CFI 157e8 .cfa: $rsp 48 +
STACK CFI 1580c .cfa: $rsp 40 +
STACK CFI 1580d .cfa: $rsp 32 +
STACK CFI 1580f .cfa: $rsp 24 +
STACK CFI 15811 .cfa: $rsp 16 +
STACK CFI 15813 .cfa: $rsp 8 +
STACK CFI 15814 .cfa: $rsp 48 +
STACK CFI 1582a .cfa: $rsp 40 +
STACK CFI 1582b .cfa: $rsp 32 +
STACK CFI 1582d .cfa: $rsp 24 +
STACK CFI 1582f .cfa: $rsp 16 +
STACK CFI 15831 .cfa: $rsp 8 +
STACK CFI 15832 .cfa: $rsp 48 +
STACK CFI INIT 15860 2a7 .cfa: $rsp 8 + .ra: .cfa -8 + ^
STACK CFI 15862 $r15: .cfa -16 + ^ .cfa: $rsp 16 +
STACK CFI 15864 $r14: .cfa -24 + ^ .cfa: $rsp 24 +
STACK CFI 15866 $r13: .cfa -32 + ^ .cfa: $rsp 32 +
STACK CFI 15868 $r12: .cfa -40 + ^ .cfa: $rsp 40 +
STACK CFI 15869 $rbp: .cfa -48 + ^ .cfa: $rsp 48 +
STACK CFI 1586a $rbx: .cfa -56 + ^ .cfa: $rsp 56 +
STACK CFI 1586e .cfa: $rsp 104 +
STACK CFI 15a0c .cfa: $rsp 56 +
STACK CFI 15a0d .cfa: $rsp 48 +
STACK CFI 15a0e .cfa: $rsp 40 +
STACK CFI 15a10 .cfa: $rsp 32 +
STACK CFI 15a12 .cfa: $rsp 24 +
STACK CFI 15a14 .cfa: $rsp 16 +
STACK CFI 15a16 .cfa: $rsp 8 +
STACK CFI 15a20 .cfa: $rsp 104 +
STACK CFI INIT 15b08 58 .cfa: $rsp 8 + .ra: .cfa -8 + ^
STACK CFI 15b09 $rbp: .cfa -16 + ^ .cfa: $rsp 16 +
STACK CFI 15b0c .cfa: $rbp 16 +
STACK CFI 15b5f .cfa: $rsp 8 +
STACK CFI INIT 15b60 76a .cfa: $rsp 8 + .ra: .cfa -8 + ^
STACK CFI 15b61 $rbp: .cfa -16 + ^ .cfa: $rsp 16 +
STACK CFI 15b64 .cfa: $rbp 16 +
STACK CFI 15b6e $r12: .cfa -24 + ^ $rbx: .cfa -32 + ^
STACK CFI 162c9 .cfa: $rsp 8 +
STACK CFI INIT 162ca 4d .cfa: $rsp 8 + .ra: .cfa -8 + ^
STACK CFI 162cb $rbp: .cfa -16 + ^ .cfa: $rsp 16 +
STACK CFI 162ce .cfa: $rbp 16 +
STACK CFI 16316 .cfa: $rsp 8 +
STACK CFI INIT 16318 ef .cfa: $rsp 8 + .ra: .cfa -8 + ^
STACK CFI 16319 $rbp: .cfa -16 + ^ .cfa: $rsp 16 +
STACK CFI 1631c .cfa: $rbp 16 +
STACK CFI 16321 $rbx: .cfa -24 + ^
STACK CFI 16406 .cfa: $rsp 8 +
STACK CFI INIT 16408 1a .cfa: $rsp 8 + .ra: .cfa -8 + ^
STACK CFI 16409 $rbp: .cfa -16 + ^ .cfa: $rsp 16 +
STACK CFI 1640c .cfa: $rbp 16 +
STACK CFI 16421 .cfa: $rsp 8 +
STACK CFI INIT 16422 1a .cfa: $rsp 8 + .ra: .cfa -8 + ^
STACK CFI 16423 $rbp: .cfa -16 + ^ .cfa: $rsp 16 +
STACK CFI 16426 .cfa: $rbp 16 +
STACK CFI 1643b .cfa: $rsp 8 +
STACK CFI INIT 1643c 22 .cfa: $rsp 8 + .ra: .cfa -8 + ^
STACK CFI 1643d $rbp: .cfa -16 + ^ .cfa: $rsp 16 +
STACK CFI 16440 .cfa: $rbp 16 +
STACK CFI 1645d .cfa: $rsp 8 +
STACK CFI INIT 1645e 28 .cfa: $rsp 8 + .ra: .cfa -8 + ^
STACK CFI 1645f $rbp: .cfa -16 + ^ .cfa: $rsp 16 +
STACK CFI 16462 .cfa: $rbp 16 +
STACK CFI 16485 .cfa: $rsp 8 +
STACK CFI INIT 16486 21 .cfa: $rsp 8 + .ra: .cfa -8 + ^
STACK CFI 16487 $rbp: .cfa -16 + ^ .cfa: $rsp 16 +
STACK CFI 1648a .cfa: $rbp 16 +
STACK CFI 164a6 .cfa: $rsp 8 +
STACK CFI INIT 164a8 29 .cfa: $rsp 8 + .ra: .cfa -8 + ^
STACK CFI 164a9 $rbp: .cfa -16 + ^ .cfa: $rsp 16 +
STACK CFI 164ac .cfa: $rbp 16 +
STACK CFI 164d0 .cfa: $rsp 8 +
STACK CFI INIT 164d2 29 .cfa: $rsp 8 + .ra: .cfa -8 + ^
STACK CFI 164d3 $rbp: .cfa -16 + ^ .cfa: $rsp 16 +
STACK CFI 164d6 .cfa: $rbp 16 +
STACK CFI 164fa .cfa: $rsp 8 +
STACK CFI INIT 164fb e .cfa: $rsp 8 + .ra: .cfa -8 + ^
STACK CFI 164fc $rbp: .cfa -16 + ^ .cfa: $rsp 16 +
STACK CFI 164ff .cfa: $rbp 16 +
STACK CFI 16508 .cfa: $rsp 8 +
STACK CFI INIT 1650a 19 .cfa: $rsp 8 + .ra: .cfa -8 + ^
STACK CFI 1650b $rbp: .cfa -16 + ^ .cfa: $rsp 16 +
STACK CFI 1650e .cfa: $rbp 16 +
STACK CFI 16522 .cfa: $rsp 8 +
STACK CFI INIT 16530 65 .cfa: $rsp 8 + .ra: .cfa -8 + ^
STACK CFI 16532 $r15: .cfa -16 + ^ .cfa: $rsp 16 +
STACK CFI 16537 $r14: .cfa -24 + ^ .cfa: $rsp 24 +
STACK CFI 1653c $r13: .cfa -32 + ^ .cfa: $rsp 32 +
STACK CFI 16541 $r12: .cfa -40 + ^ .cfa: $rsp 40 +
STACK CFI 16549 $rbp: .cfa -48 + ^ .cfa: $rsp 48 +
STACK CFI 16551 $rbx: .cfa -56 + ^ .cfa: $rsp 56 +
STACK CFI 1655e .cfa: $rsp 64 +
STACK CFI 1658a .cfa: $rsp 56 +
STACK CFI 1658b .cfa: $rsp 48 +
STACK CFI 1658c .cfa: $rsp 40 +
STACK CFI 1658e .cfa: $rsp 32 +
STACK CFI 16590 .cfa: $rsp 24 +
STACK CFI 16592 .cfa: $rsp 16 +
STACK CFI 16594 .cfa: $rsp 8 +
STACK CFI INIT 165a0 2 .cfa: $rsp 8 + .ra: .cfa -8 + ^
